

Microchip MPLAB XC8 Assembler V2.40 build 20220703182018 
                                                                                               Tue Jan 03 16:56:25 2023

Microchip MPLAB XC8 C Compiler v2.40 (Free license) build 20220703182018 Og1 
     1                           	processor	16F1518
     2                           	pagewidth 120
     3                           	opt	flic
     4                           	psect	cinit,global,class=CODE,merge=1,delta=2
     5                           	psect	bssBANK1,global,class=BANK1,space=1,delta=1,noexec
     6                           	psect	cstackBANK1,global,class=BANK1,space=1,delta=1,noexec
     7                           	psect	cstackCOMMON,global,class=COMMON,space=1,delta=1,noexec
     8                           	psect	cstackBANK0,global,class=BANK0,space=1,delta=1,noexec
     9                           	psect	maintext,global,class=CODE,merge=1,split=1,delta=2
    10                           	psect	text1,local,class=CODE,merge=1,delta=2
    11                           	psect	text2,local,class=CODE,merge=1,delta=2
    12                           	psect	text3,local,class=CODE,merge=1,delta=2,group=1
    13                           	psect	text4,local,class=CODE,merge=1,delta=2
    14                           	psect	text5,local,class=CODE,merge=1,delta=2
    15                           	psect	text6,local,class=CODE,merge=1,delta=2,group=1
    16                           	psect	text7,local,class=CODE,merge=1,delta=2,group=1
    17                           	psect	text8,local,class=CODE,merge=1,delta=2,group=1
    18                           	psect	text9,local,class=CODE,merge=1,delta=2,group=1
    19                           	psect	text10,local,class=CODE,merge=1,delta=2,group=1
    20                           	psect	text11,local,class=CODE,merge=1,delta=2
    21                           	psect	idloc,global,abs,ovrld,class=IDLOC,space=5,delta=2,noexec
    22                           	psect	config,global,abs,ovrld,class=CONFIG,space=4,delta=2,noexec
    23                           	dabs	1,0x7E,2
    24     0000                     
    25                           ; Version 2.40
    26                           ; Generated 17/11/2021 GMT
    27                           ; 
    28                           ; Copyright © 2021, Microchip Technology Inc. and its subsidiaries ("Microchip")
    29                           ; All rights reserved.
    30                           ; 
    31                           ; This software is developed by Microchip Technology Inc. and its subsidiaries ("Microch
      +                          ip").
    32                           ; 
    33                           ; Redistribution and use in source and binary forms, with or without modification, are
    34                           ; permitted provided that the following conditions are met:
    35                           ; 
    36                           ;     1. Redistributions of source code must retain the above copyright notice, this lis
      +                          t of
    37                           ;        conditions and the following disclaimer.
    38                           ; 
    39                           ;     2. Redistributions in binary form must reproduce the above copyright notice, this 
      +                          list
    40                           ;        of conditions and the following disclaimer in the documentation and/or other
    41                           ;        materials provided with the distribution. Publication is not required when
    42                           ;        this file is used in an embedded application.
    43                           ; 
    44                           ;     3. Microchip's name may not be used to endorse or promote products derived from th
      +                          is
    45                           ;        software without specific prior written permission.
    46                           ; 
    47                           ; THIS SOFTWARE IS PROVIDED BY MICROCHIP "AS IS" AND ANY EXPRESS OR IMPLIED WARRANTIES,
    48                           ; INCLUDING, BUT NOT LIMITED TO, THE IMPLIED WARRANTIES OF MERCHANTABILITY AND FITNESS F
      +                          OR
    49                           ; PURPOSE ARE DISCLAIMED.  IN NO EVENT SHALL MICROCHIP BE LIABLE FOR ANY DIRECT, INDIREC
      +                          T,
    50                           ; INCIDENTAL, SPECIAL, EXEMPLARY, OR CONSEQUENTIAL DAMAGES (INCLUDING BUT NOT LIMITED TO
    51                           ; PROCUREMENT OF SUBSTITUTE GOODS OR SERVICES; LOSS OF USE, DATA OR PROFITS; OR BUSINESS
    52                           ; INTERRUPTION) HOWSOEVER CAUSED AND ON ANY THEORY OF LIABILITY, WHETHER IN CONTRACT, ST
      +                          RICT
    53                           ; LIABILITY, OR TORT (INCLUDING NEGLIGENCE OR OTHERWISE) ARISING IN ANY WAY OUT OF THE U
      +                          SE OF
    54                           ; THIS SOFTWARE, EVEN IF ADVISED OF THE POSSIBILITY OF SUCH DAMAGE.
    55                           ; 
    56                           ; 
    57                           ; Code-generator required, PIC16F1518 Definitions
    58                           ; 
    59                           ; SFR Addresses
    60     0000                     	;# 
    61     0001                     	;# 
    62     0002                     	;# 
    63     0003                     	;# 
    64     0004                     	;# 
    65     0005                     	;# 
    66     0006                     	;# 
    67     0007                     	;# 
    68     0008                     	;# 
    69     0009                     	;# 
    70     000A                     	;# 
    71     000B                     	;# 
    72     000C                     	;# 
    73     000D                     	;# 
    74     000E                     	;# 
    75     0010                     	;# 
    76     0011                     	;# 
    77     0012                     	;# 
    78     0015                     	;# 
    79     0016                     	;# 
    80     0016                     	;# 
    81     0017                     	;# 
    82     0018                     	;# 
    83     0019                     	;# 
    84     001A                     	;# 
    85     001B                     	;# 
    86     001C                     	;# 
    87     008C                     	;# 
    88     008D                     	;# 
    89     008E                     	;# 
    90     0090                     	;# 
    91     0091                     	;# 
    92     0092                     	;# 
    93     0095                     	;# 
    94     0096                     	;# 
    95     0097                     	;# 
    96     0099                     	;# 
    97     009A                     	;# 
    98     009B                     	;# 
    99     009B                     	;# 
   100     009C                     	;# 
   101     009D                     	;# 
   102     009E                     	;# 
   103     010C                     	;# 
   104     010D                     	;# 
   105     010E                     	;# 
   106     0116                     	;# 
   107     0117                     	;# 
   108     011D                     	;# 
   109     018C                     	;# 
   110     018D                     	;# 
   111     018E                     	;# 
   112     0191                     	;# 
   113     0191                     	;# 
   114     0192                     	;# 
   115     0193                     	;# 
   116     0193                     	;# 
   117     0194                     	;# 
   118     0195                     	;# 
   119     0196                     	;# 
   120     0197                     	;# 
   121     0199                     	;# 
   122     019A                     	;# 
   123     019B                     	;# 
   124     019B                     	;# 
   125     019B                     	;# 
   126     019B                     	;# 
   127     019C                     	;# 
   128     019C                     	;# 
   129     019D                     	;# 
   130     019E                     	;# 
   131     019F                     	;# 
   132     020D                     	;# 
   133     0210                     	;# 
   134     0211                     	;# 
   135     0211                     	;# 
   136     0212                     	;# 
   137     0212                     	;# 
   138     0213                     	;# 
   139     0213                     	;# 
   140     0214                     	;# 
   141     0214                     	;# 
   142     0215                     	;# 
   143     0215                     	;# 
   144     0215                     	;# 
   145     0216                     	;# 
   146     0216                     	;# 
   147     0217                     	;# 
   148     0217                     	;# 
   149     0291                     	;# 
   150     0291                     	;# 
   151     0292                     	;# 
   152     0293                     	;# 
   153     0298                     	;# 
   154     0298                     	;# 
   155     0299                     	;# 
   156     029A                     	;# 
   157     0394                     	;# 
   158     0395                     	;# 
   159     0396                     	;# 
   160     0FE4                     	;# 
   161     0FE5                     	;# 
   162     0FE6                     	;# 
   163     0FE7                     	;# 
   164     0FE8                     	;# 
   165     0FE9                     	;# 
   166     0FEA                     	;# 
   167     0FEB                     	;# 
   168     0FED                     	;# 
   169     0FEE                     	;# 
   170     0FEF                     	;# 
   171     001A                     _TMR2	set	26
   172     001B                     _PR2	set	27
   173     001C                     _T2CONbits	set	28
   174     0072                     _RC2	set	114
   175     009B                     _ADRESL	set	155
   176     009C                     _ADRESH	set	156
   177     009E                     _ADCON1bits	set	158
   178     009D                     _ADCON0bits	set	157
   179     0099                     _OSCCONbits	set	153
   180     0472                     _TRISC2	set	1138
   181     0460                     _TRISA0	set	1120
   182     018C                     _ANSELAbits	set	396
   183     018E                     _ANSELC	set	398
   184     018D                     _ANSELB	set	397
   185     018C                     _ANSELA	set	396
   186     0291                     _CCPR1L	set	657
   187     0293                     _CCP1CONbits	set	659
   188                           
   189                           	psect	cinit
   190     07FA                     start_initialization:	
   191                           ; #config settings
   192                           
   193     07FA                     __initialization:
   194                           
   195                           ; Clear objects allocated to BANK1
   196     07FA  0021               	movlb	1	; select bank1
   197     07FB  01B6               	clrf	__pbssBANK1& (0+127)
   198     07FC  01B7               	clrf	(__pbssBANK1+1)& (0+127)
   199     07FD                     end_of_initialization:	
   200                           ;End of C runtime variable initialization code
   201                           
   202     07FD                     __end_of__initialization:
   203     07FD  0020               	movlb	0
   204     07FE  318F  2F35         	ljmp	_main	;jump to C main() function
   205                           
   206                           	psect	bssBANK1
   207     00B6                     __pbssBANK1:
   208     00B6                     _value:
   209     00B6                     	ds	2
   210                           
   211                           	psect	cstackBANK1
   212     00A0                     __pcstackBANK1:
   213     00A0                     ___fltol@sign1:
   214                           
   215                           ; 1 bytes @ 0x0
   216     00A0                     	ds	1
   217     00A1                     ___fltol@exp1:
   218                           
   219                           ; 1 bytes @ 0x1
   220     00A1                     	ds	1
   221     00A2                     ?_pwm_set_freq:
   222     00A2                     ?_pwm_calculate_duty:	
   223                           ; 1 bytes @ 0x2
   224                           
   225     00A2                     pwm_set_freq@freq:	
   226                           ; 2 bytes @ 0x2
   227                           
   228     00A2                     pwm_calculate_duty@duty:	
   229                           ; 4 bytes @ 0x2
   230                           
   231                           
   232                           ; 4 bytes @ 0x2
   233     00A2                     	ds	4
   234     00A6                     _pwm_set_freq$684:
   235     00A6                     _pwm_calculate_duty$685:	
   236                           ; 4 bytes @ 0x6
   237                           
   238                           
   239                           ; 4 bytes @ 0x6
   240     00A6                     	ds	4
   241     00AA                     ?_pwm1_set_duty:
   242     00AA                     pwm1_set_duty@dutyInput:	
   243                           ; 1 bytes @ 0xA
   244                           
   245                           
   246                           ; 2 bytes @ 0xA
   247     00AA                     	ds	2
   248     00AC                     ??_pwm1_set_duty:
   249                           
   250                           ; 1 bytes @ 0xC
   251     00AC                     	ds	2
   252     00AE                     _pwm1_set_duty$686:
   253                           
   254                           ; 4 bytes @ 0xE
   255     00AE                     	ds	4
   256     00B2                     pwm1_set_duty@duty:
   257                           
   258                           ; 2 bytes @ 0x12
   259     00B2                     	ds	2
   260     00B4                     ??_main:
   261                           
   262                           ; 1 bytes @ 0x14
   263     00B4                     	ds	2
   264                           
   265                           	psect	cstackCOMMON
   266     0070                     __pcstackCOMMON:
   267     0070                     ?_intosc_set_freq:
   268     0070                     ??_intosc_set_freq:	
   269                           ; 1 bytes @ 0x0
   270                           
   271     0070                     ?_tmr2_init:	
   272                           ; 1 bytes @ 0x0
   273                           
   274     0070                     ??_tmr2_init:	
   275                           ; 1 bytes @ 0x0
   276                           
   277     0070                     ?_main:	
   278                           ; 1 bytes @ 0x0
   279                           
   280     0070                     ?__Umul8_16:	
   281                           ; 1 bytes @ 0x0
   282                           
   283     0070                     ?___xxtofl:	
   284                           ; 2 bytes @ 0x0
   285                           
   286     0070                     __Umul8_16@multiplicand:	
   287                           ; 4 bytes @ 0x0
   288                           
   289     0070                     ___xxtofl@val:	
   290                           ; 1 bytes @ 0x0
   291                           
   292                           
   293                           ; 4 bytes @ 0x0
   294     0070                     	ds	2
   295     0072                     ??__Umul8_16:
   296                           
   297                           ; 1 bytes @ 0x2
   298     0072                     	ds	2
   299     0074                     ??___xxtofl:
   300     0074                     __Umul8_16@product:	
   301                           ; 1 bytes @ 0x4
   302                           
   303                           
   304                           ; 2 bytes @ 0x4
   305     0074                     	ds	2
   306     0076                     __Umul8_16@word_mpld:
   307                           
   308                           ; 2 bytes @ 0x6
   309     0076                     	ds	2
   310     0078                     __Umul8_16@multiplier:
   311     0078                     ___xxtofl@sign:	
   312                           ; 1 bytes @ 0x8
   313                           
   314                           
   315                           ; 1 bytes @ 0x8
   316     0078                     	ds	1
   317     0079                     ___xxtofl@exp:
   318                           
   319                           ; 1 bytes @ 0x9
   320     0079                     	ds	1
   321     007A                     ___xxtofl@arg:
   322                           
   323                           ; 4 bytes @ 0xA
   324     007A                     	ds	4
   325     007E                     ??_pwm_set_freq:
   326     007E                     ??_pwm_calculate_duty:	
   327                           ; 1 bytes @ 0xE
   328                           
   329                           
   330                           	psect	cstackBANK0
   331     0020                     __pcstackBANK0:	
   332                           ; 1 bytes @ 0xE
   333                           
   334     0020                     ?___flmul:
   335     0020                     ___flmul@b:	
   336                           ; 4 bytes @ 0x0
   337                           
   338                           
   339                           ; 4 bytes @ 0x0
   340     0020                     	ds	4
   341     0024                     ___flmul@a:
   342                           
   343                           ; 4 bytes @ 0x4
   344     0024                     	ds	4
   345     0028                     ??___flmul:
   346                           
   347                           ; 1 bytes @ 0x8
   348     0028                     	ds	5
   349     002D                     ___flmul@sign:
   350                           
   351                           ; 1 bytes @ 0xD
   352     002D                     	ds	1
   353     002E                     ___flmul@grs:
   354                           
   355                           ; 4 bytes @ 0xE
   356     002E                     	ds	4
   357     0032                     ___flmul@aexp:
   358                           
   359                           ; 1 bytes @ 0x12
   360     0032                     	ds	1
   361     0033                     ___flmul@bexp:
   362                           
   363                           ; 1 bytes @ 0x13
   364     0033                     	ds	1
   365     0034                     ___flmul@prod:
   366                           
   367                           ; 4 bytes @ 0x14
   368     0034                     	ds	4
   369     0038                     ___flmul@temp:
   370                           
   371                           ; 2 bytes @ 0x18
   372     0038                     	ds	2
   373     003A                     ?___fldiv:
   374     003A                     ___fldiv@a:	
   375                           ; 4 bytes @ 0x1A
   376                           
   377                           
   378                           ; 4 bytes @ 0x1A
   379     003A                     	ds	4
   380     003E                     ___fldiv@b:
   381                           
   382                           ; 4 bytes @ 0x1E
   383     003E                     	ds	4
   384     0042                     ??___fldiv:
   385                           
   386                           ; 1 bytes @ 0x22
   387     0042                     	ds	5
   388     0047                     ___fldiv@rem:
   389                           
   390                           ; 4 bytes @ 0x27
   391     0047                     	ds	4
   392     004B                     ___fldiv@sign:
   393                           
   394                           ; 1 bytes @ 0x2B
   395     004B                     	ds	1
   396     004C                     ___fldiv@new_exp:
   397                           
   398                           ; 2 bytes @ 0x2C
   399     004C                     	ds	2
   400     004E                     ___fldiv@grs:
   401                           
   402                           ; 4 bytes @ 0x2E
   403     004E                     	ds	4
   404     0052                     ___fldiv@bexp:
   405                           
   406                           ; 1 bytes @ 0x32
   407     0052                     	ds	1
   408     0053                     ___fldiv@aexp:
   409                           
   410                           ; 1 bytes @ 0x33
   411     0053                     	ds	1
   412     0054                     ?___fladd:
   413     0054                     ___fladd@b:	
   414                           ; 4 bytes @ 0x34
   415                           
   416                           
   417                           ; 4 bytes @ 0x34
   418     0054                     	ds	4
   419     0058                     ___fladd@a:
   420                           
   421                           ; 4 bytes @ 0x38
   422     0058                     	ds	4
   423     005C                     ??___fladd:
   424                           
   425                           ; 1 bytes @ 0x3C
   426     005C                     	ds	8
   427     0064                     ___fladd@signs:
   428                           
   429                           ; 1 bytes @ 0x44
   430     0064                     	ds	1
   431     0065                     ___fladd@aexp:
   432                           
   433                           ; 1 bytes @ 0x45
   434     0065                     	ds	1
   435     0066                     ___fladd@bexp:
   436                           
   437                           ; 1 bytes @ 0x46
   438     0066                     	ds	1
   439     0067                     ___fladd@grs:
   440                           
   441                           ; 1 bytes @ 0x47
   442     0067                     	ds	1
   443     0068                     ?___fltol:
   444     0068                     ___fltol@f1:	
   445                           ; 4 bytes @ 0x48
   446                           
   447                           
   448                           ; 4 bytes @ 0x48
   449     0068                     	ds	4
   450     006C                     ??___fltol:
   451                           
   452                           ; 1 bytes @ 0x4C
   453     006C                     	ds	4
   454                           
   455                           	psect	maintext
   456     0F35                     __pmaintext:	
   457 ;;
   458 ;;Main: autosize = 0, tempsize = 2, incstack = 0, save=0
   459 ;;
   460 ;; *************** function _main *****************
   461 ;; Defined at:
   462 ;;		line 22 in file "main.c"
   463 ;; Parameters:    Size  Location     Type
   464 ;;		None
   465 ;; Auto vars:     Size  Location     Type
   466 ;;		None
   467 ;; Return value:  Size  Location     Type
   468 ;;                  1    wreg      void 
   469 ;; Registers used:
   470 ;;		wreg, status,2, status,0, pclath, cstack
   471 ;; Tracked objects:
   472 ;;		On entry : B1F/0
   473 ;;		On exit  : 0/0
   474 ;;		Unchanged: 0/0
   475 ;; Data sizes:     COMMON   BANK0   BANK1   BANK2   BANK3   BANK4   BANK5   BANK6   BANK7   BANK8   BANK9  BANK10  BANK1
      +1  BANK12
   476 ;;      Params:         0       0       0       0       0       0       0       0       0       0       0       0       
      +0       0
   477 ;;      Locals:         0       0       0       0       0       0       0       0       0       0       0       0       
      +0       0
   478 ;;      Temps:          0       0       2       0       0       0       0       0       0       0       0       0       
      +0       0
   479 ;;      Totals:         0       0       2       0       0       0       0       0       0       0       0       0       
      +0       0
   480 ;;Total ram usage:        2 bytes
   481 ;; Hardware stack levels required when called: 4
   482 ;; This function calls:
   483 ;;		_intosc_set_freq
   484 ;;		_pwm1_set_duty
   485 ;;		_pwm_set_freq
   486 ;;		_tmr2_init
   487 ;; This function is called by:
   488 ;;		Startup code after reset
   489 ;; This function uses a non-reentrant model
   490 ;;
   491                           
   492     0F35                     _main:	
   493                           ;psect for function _main
   494                           
   495     0F35                     l1821:	
   496                           ;incstack = 0
   497                           ; Regs used in _main: [wreg+status,2+status,0+pclath+cstack]
   498                           
   499                           
   500                           ;main.c: 23:     intosc_set_freq();
   501     0F35  3180  2006  318F   	fcall	_intosc_set_freq
   502     0F38                     l1823:
   503                           
   504                           ;main.c: 25:     ANSELA = 0;
   505     0F38  0023               	movlb	3	; select bank3
   506     0F39  018C               	clrf	12	;volatile
   507     0F3A                     l1825:
   508                           
   509                           ;main.c: 26:     ANSELB = 0;
   510     0F3A  018D               	clrf	13	;volatile
   511     0F3B                     l1827:
   512                           
   513                           ;main.c: 27:     ANSELC = 0;
   514     0F3B  018E               	clrf	14	;volatile
   515     0F3C                     l1829:
   516                           
   517                           ;main.c: 29:     ADCON0bits.CHS = 0b00000;
   518     0F3C  3083               	movlw	-125
   519     0F3D  0021               	movlb	1	; select bank1
   520     0F3E  059D               	andwf	29,f	;volatile
   521     0F3F                     l1831:
   522                           
   523                           ;main.c: 30:     ADCON0bits.GO_nDONE = 0;
   524     0F3F  109D               	bcf	29,1	;volatile
   525     0F40                     l1833:
   526                           
   527                           ;main.c: 31:     ADCON0bits.ADON = 1;
   528     0F40  141D               	bsf	29,0	;volatile
   529     0F41                     l1835:
   530                           
   531                           ;main.c: 33:     ADCON1bits.ADCS = 0b101;
   532     0F41  081E               	movf	30,w	;volatile
   533     0F42  398F               	andlw	-113
   534     0F43  3850               	iorlw	80
   535     0F44  009E               	movwf	30	;volatile
   536     0F45                     l1837:
   537                           
   538                           ;main.c: 34:     ADCON1bits.ADFM = 1;
   539     0F45  179E               	bsf	30,7	;volatile
   540     0F46                     l1839:
   541                           
   542                           ;main.c: 36:     ANSELAbits.ANSA0 = 1;
   543     0F46  0023               	movlb	3	; select bank3
   544     0F47  140C               	bsf	12,0	;volatile
   545     0F48                     l1841:
   546                           
   547                           ;main.c: 37:     TRISA0 = 1;
   548     0F48  0021               	movlb	1	; select bank1
   549     0F49  140C               	bsf	12,0	;volatile
   550     0F4A                     l1843:
   551                           
   552                           ;main.c: 39:     tmr2_init();
   553     0F4A  318F  270A  318F   	fcall	_tmr2_init
   554     0F4D                     l1845:
   555                           
   556                           ;main.c: 40:     pwm_set_freq(500);
   557     0F4D  3043               	movlw	67
   558     0F4E  0021               	movlb	1	; select bank1
   559     0F4F  00A5               	movwf	(pwm_set_freq@freq+3)^(0+128)
   560     0F50  30FA               	movlw	250
   561     0F51  00A4               	movwf	(pwm_set_freq@freq+2)^(0+128)
   562     0F52  3000               	movlw	0
   563     0F53  00A3               	movwf	(pwm_set_freq@freq+1)^(0+128)
   564     0F54  3000               	movlw	0
   565     0F55  00A2               	movwf	pwm_set_freq@freq^(0+128)
   566     0F56  3180  20E4  318F   	fcall	_pwm_set_freq
   567     0F59                     l1847:
   568                           
   569                           ;main.c: 42:     T2CONbits.TMR2ON = 1; TMR2 = 0;
   570     0F59  0020               	movlb	0	; select bank0
   571     0F5A  151C               	bsf	28,2	;volatile
   572     0F5B                     l1849:
   573     0F5B  019A               	clrf	26	;volatile
   574     0F5C                     l1851:
   575                           
   576                           ;main.c: 43:     CCP1CONbits.CCP1M3 = 1; CCP1CONbits.CCP1M2 = 1;
   577     0F5C  0025               	movlb	5	; select bank5
   578     0F5D  1593               	bsf	19,3	;volatile
   579     0F5E                     l1853:
   580     0F5E  1513               	bsf	19,2	;volatile
   581     0F5F                     l1855:
   582                           
   583                           ;main.c: 44:     TRISC2 = 0;
   584     0F5F  0021               	movlb	1	; select bank1
   585     0F60  110E               	bcf	14,2	;volatile
   586     0F61                     l1857:
   587                           
   588                           ;main.c: 45:     RC2 = 0;
   589     0F61  0020               	movlb	0	; select bank0
   590     0F62  110E               	bcf	14,2	;volatile
   591     0F63                     l1859:
   592                           
   593                           ;main.c: 48:         ADCON0bits.GO_nDONE = 1;
   594     0F63  0021               	movlb	1	; select bank1
   595     0F64  149D               	bsf	29,1	;volatile
   596     0F65                     l60:	
   597                           ;main.c: 49:         while (ADCON0bits.GO_nDONE);
   598                           
   599     0F65  189D               	btfsc	29,1	;volatile
   600     0F66  2F68               	goto	u2561
   601     0F67  2F69               	goto	u2560
   602     0F68                     u2561:
   603     0F68  2F65               	goto	l60
   604     0F69                     u2560:
   605     0F69                     l1861:
   606                           
   607                           ;main.c: 50:         value = ((ADRESH << 8) + ADRESL);
   608     0F69  081C               	movf	28,w	;volatile
   609     0F6A  00B7               	movwf	(_value+1)^(0+128)
   610     0F6B  081B               	movf	27,w	;volatile
   611     0F6C  00B6               	movwf	_value^(0+128)
   612     0F6D                     l1863:
   613                           
   614                           ;main.c: 52:         pwm1_set_duty(value);
   615     0F6D  0837               	movf	(_value+1)^(0+128),w
   616     0F6E  00AB               	movwf	(pwm1_set_duty@dutyInput+1)^(0+128)
   617     0F6F  0836               	movf	_value^(0+128),w
   618     0F70  00AA               	movwf	pwm1_set_duty@dutyInput^(0+128)
   619     0F71  3180  200A  318F   	fcall	_pwm1_set_duty
   620     0F74                     l1865:
   621                           
   622                           ;main.c: 53:         _delay((unsigned long)((50)*(16000000/4000.0)));
   623     0F74  3002               	movlw	2
   624     0F75  0021               	movlb	1	; select bank1
   625     0F76  00B5               	movwf	(??_main^(0+128)+1)
   626     0F77  3004               	movlw	4
   627     0F78  00B4               	movwf	??_main^(0+128)
   628     0F79  30BA               	movlw	186
   629     0F7A                     u2577:
   630     0F7A  0B89               	decfsz	9,f
   631     0F7B  2F7A               	goto	u2577
   632     0F7C  0BB4               	decfsz	??_main^(0+128),f
   633     0F7D  2F7A               	goto	u2577
   634     0F7E  0BB5               	decfsz	(??_main^(0+128)+1),f
   635     0F7F  2F7A               	goto	u2577
   636     0F80  0000               	nop
   637     0F81  2F63               	goto	l1859
   638     0F82  3180  2803         	ljmp	start
   639     0F84                     __end_of_main:
   640                           
   641                           	psect	text1
   642     0F0A                     __ptext1:	
   643 ;; *************** function _tmr2_init *****************
   644 ;; Defined at:
   645 ;;		line 11 in file "./tmr2.h"
   646 ;; Parameters:    Size  Location     Type
   647 ;;		None
   648 ;; Auto vars:     Size  Location     Type
   649 ;;		None
   650 ;; Return value:  Size  Location     Type
   651 ;;                  1    wreg      void 
   652 ;; Registers used:
   653 ;;		wreg, status,2, status,0
   654 ;; Tracked objects:
   655 ;;		On entry : 0/0
   656 ;;		On exit  : 0/0
   657 ;;		Unchanged: 0/0
   658 ;; Data sizes:     COMMON   BANK0   BANK1   BANK2   BANK3   BANK4   BANK5   BANK6   BANK7   BANK8   BANK9  BANK10  BANK1
      +1  BANK12
   659 ;;      Params:         0       0       0       0       0       0       0       0       0       0       0       0       
      +0       0
   660 ;;      Locals:         0       0       0       0       0       0       0       0       0       0       0       0       
      +0       0
   661 ;;      Temps:          0       0       0       0       0       0       0       0       0       0       0       0       
      +0       0
   662 ;;      Totals:         0       0       0       0       0       0       0       0       0       0       0       0       
      +0       0
   663 ;;Total ram usage:        0 bytes
   664 ;; Hardware stack levels used: 1
   665 ;; This function calls:
   666 ;;		Nothing
   667 ;; This function is called by:
   668 ;;		_main
   669 ;; This function uses a non-reentrant model
   670 ;;
   671                           
   672     0F0A                     _tmr2_init:	
   673                           ;psect for function _tmr2_init
   674                           
   675     0F0A                     l1803:	
   676                           ;incstack = 0
   677                           ; Regs used in _tmr2_init: [wreg+status,2+status,0]
   678                           
   679                           
   680                           ;./tmr2.h: 32:     T2CONbits.T2CKPS = 0b01;
   681     0F0A  0020               	movlb	0	; select bank0
   682     0F0B  081C               	movf	28,w	;volatile
   683     0F0C  39FC               	andlw	-4
   684     0F0D  3801               	iorlw	1
   685     0F0E  009C               	movwf	28	;volatile
   686                           
   687                           ;./tmr2.h: 40:     T2CONbits.T2OUTPS = 0b0000;
   688     0F0F  3087               	movlw	-121
   689     0F10  059C               	andwf	28,f	;volatile
   690     0F11                     l42:
   691     0F11  0008               	return
   692     0F12                     __end_of_tmr2_init:
   693                           
   694                           	psect	text2
   695     00E4                     __ptext2:	
   696 ;; *************** function _pwm_set_freq *****************
   697 ;; Defined at:
   698 ;;		line 13 in file "./pwm.h"
   699 ;; Parameters:    Size  Location     Type
   700 ;;  freq            4    2[BANK1 ] void 
   701 ;; Auto vars:     Size  Location     Type
   702 ;;		None
   703 ;; Return value:  Size  Location     Type
   704 ;;                  1    wreg      void 
   705 ;; Registers used:
   706 ;;		wreg, status,2, status,0, pclath, cstack
   707 ;; Tracked objects:
   708 ;;		On entry : 0/0
   709 ;;		On exit  : 0/0
   710 ;;		Unchanged: 0/0
   711 ;; Data sizes:     COMMON   BANK0   BANK1   BANK2   BANK3   BANK4   BANK5   BANK6   BANK7   BANK8   BANK9  BANK10  BANK1
      +1  BANK12
   712 ;;      Params:         0       0       4       0       0       0       0       0       0       0       0       0       
      +0       0
   713 ;;      Locals:         0       0       4       0       0       0       0       0       0       0       0       0       
      +0       0
   714 ;;      Temps:          0       0       0       0       0       0       0       0       0       0       0       0       
      +0       0
   715 ;;      Totals:         0       0       8       0       0       0       0       0       0       0       0       0       
      +0       0
   716 ;;Total ram usage:        8 bytes
   717 ;; Hardware stack levels used: 1
   718 ;; Hardware stack levels required when called: 2
   719 ;; This function calls:
   720 ;;		___fladd
   721 ;;		___fldiv
   722 ;;		___flmul
   723 ;;		___fltol
   724 ;; This function is called by:
   725 ;;		_main
   726 ;; This function uses a non-reentrant model
   727 ;;
   728                           
   729     00E4                     _pwm_set_freq:	
   730                           ;psect for function _pwm_set_freq
   731                           
   732     00E4                     l1805:	
   733                           ;incstack = 0
   734                           ; Regs used in _pwm_set_freq: [wreg+status,2+status,0+pclath+cstack]
   735                           
   736                           
   737                           ;./pwm.h: 14:     PR2 = (unsigned char) ((16000000 / (freq * 4 * 4)) - 1);
   738     00E4  0021               	movlb	1	; select bank1
   739     00E5  0825               	movf	(pwm_set_freq@freq+3)^(0+128),w
   740     00E6  0020               	movlb	0	; select bank0
   741     00E7  00A7               	movwf	___flmul@a+3
   742     00E8  0021               	movlb	1	; select bank1
   743     00E9  0824               	movf	(pwm_set_freq@freq+2)^(0+128),w
   744     00EA  0020               	movlb	0	; select bank0
   745     00EB  00A6               	movwf	___flmul@a+2
   746     00EC  0021               	movlb	1	; select bank1
   747     00ED  0823               	movf	(pwm_set_freq@freq+1)^(0+128),w
   748     00EE  0020               	movlb	0	; select bank0
   749     00EF  00A5               	movwf	___flmul@a+1
   750     00F0  0021               	movlb	1	; select bank1
   751     00F1  0822               	movf	pwm_set_freq@freq^(0+128),w
   752     00F2  0020               	movlb	0	; select bank0
   753     00F3  00A4               	movwf	___flmul@a
   754     00F4  3040               	movlw	64
   755     00F5  00A3               	movwf	___flmul@b+3
   756     00F6  3080               	movlw	128
   757     00F7  00A2               	movwf	___flmul@b+2
   758     00F8  3000               	movlw	0
   759     00F9  00A1               	movwf	___flmul@b+1
   760     00FA  3000               	movlw	0
   761     00FB  00A0               	movwf	___flmul@b
   762     00FC  3185  25BF  3180   	fcall	___flmul
   763     00FF  0020               	movlb	0	; select bank0
   764     0100  0823               	movf	?___flmul+3,w
   765     0101  0021               	movlb	1	; select bank1
   766     0102  00A9               	movwf	(_pwm_set_freq$684+3)^(0+128)
   767     0103  0020               	movlb	0	; select bank0
   768     0104  0822               	movf	?___flmul+2,w
   769     0105  0021               	movlb	1	; select bank1
   770     0106  00A8               	movwf	(_pwm_set_freq$684+2)^(0+128)
   771     0107  0020               	movlb	0	; select bank0
   772     0108  0821               	movf	?___flmul+1,w
   773     0109  0021               	movlb	1	; select bank1
   774     010A  00A7               	movwf	(_pwm_set_freq$684+1)^(0+128)
   775     010B  0020               	movlb	0	; select bank0
   776     010C  0820               	movf	?___flmul,w
   777     010D  0021               	movlb	1	; select bank1
   778     010E  00A6               	movwf	_pwm_set_freq$684^(0+128)
   779                           
   780                           ;./pwm.h: 14:     PR2 = (unsigned char) ((16000000 / (freq * 4 * 4)) - 1);
   781     010F  304B               	movlw	75
   782     0110  0020               	movlb	0	; select bank0
   783     0111  00C1               	movwf	___fldiv@b+3
   784     0112  3074               	movlw	116
   785     0113  00C0               	movwf	___fldiv@b+2
   786     0114  3024               	movlw	36
   787     0115  00BF               	movwf	___fldiv@b+1
   788     0116  3000               	movlw	0
   789     0117  00BE               	movwf	___fldiv@b
   790     0118  0021               	movlb	1	; select bank1
   791     0119  0829               	movf	(_pwm_set_freq$684+3)^(0+128),w
   792     011A  0020               	movlb	0	; select bank0
   793     011B  00A7               	movwf	___flmul@a+3
   794     011C  0021               	movlb	1	; select bank1
   795     011D  0828               	movf	(_pwm_set_freq$684+2)^(0+128),w
   796     011E  0020               	movlb	0	; select bank0
   797     011F  00A6               	movwf	___flmul@a+2
   798     0120  0021               	movlb	1	; select bank1
   799     0121  0827               	movf	(_pwm_set_freq$684+1)^(0+128),w
   800     0122  0020               	movlb	0	; select bank0
   801     0123  00A5               	movwf	___flmul@a+1
   802     0124  0021               	movlb	1	; select bank1
   803     0125  0826               	movf	_pwm_set_freq$684^(0+128),w
   804     0126  0020               	movlb	0	; select bank0
   805     0127  00A4               	movwf	___flmul@a
   806     0128  3040               	movlw	64
   807     0129  00A3               	movwf	___flmul@b+3
   808     012A  3080               	movlw	128
   809     012B  00A2               	movwf	___flmul@b+2
   810     012C  3000               	movlw	0
   811     012D  00A1               	movwf	___flmul@b+1
   812     012E  3000               	movlw	0
   813     012F  00A0               	movwf	___flmul@b
   814     0130  3185  25BF  3180   	fcall	___flmul
   815     0133  0020               	movlb	0	; select bank0
   816     0134  0823               	movf	?___flmul+3,w
   817     0135  00BD               	movwf	___fldiv@a+3
   818     0136  0822               	movf	?___flmul+2,w
   819     0137  00BC               	movwf	___fldiv@a+2
   820     0138  0821               	movf	?___flmul+1,w
   821     0139  00BB               	movwf	___fldiv@a+1
   822     013A  0820               	movf	?___flmul,w
   823     013B  00BA               	movwf	___fldiv@a
   824     013C  3182  220D  3180   	fcall	___fldiv
   825     013F  0020               	movlb	0	; select bank0
   826     0140  083D               	movf	?___fldiv+3,w
   827     0141  00DB               	movwf	___fladd@a+3
   828     0142  083C               	movf	?___fldiv+2,w
   829     0143  00DA               	movwf	___fladd@a+2
   830     0144  083B               	movf	?___fldiv+1,w
   831     0145  00D9               	movwf	___fladd@a+1
   832     0146  083A               	movf	?___fldiv,w
   833     0147  00D8               	movwf	___fladd@a
   834     0148  30BF               	movlw	191
   835     0149  00D7               	movwf	___fladd@b+3
   836     014A  3080               	movlw	128
   837     014B  00D6               	movwf	___fladd@b+2
   838     014C  3000               	movlw	0
   839     014D  00D5               	movwf	___fladd@b+1
   840     014E  3000               	movlw	0
   841     014F  00D4               	movwf	___fladd@b
   842     0150  3183  23B7  3180   	fcall	___fladd
   843     0153  0020               	movlb	0	; select bank0
   844     0154  0857               	movf	?___fladd+3,w
   845     0155  00EB               	movwf	___fltol@f1+3
   846     0156  0856               	movf	?___fladd+2,w
   847     0157  00EA               	movwf	___fltol@f1+2
   848     0158  0855               	movf	?___fladd+1,w
   849     0159  00E9               	movwf	___fltol@f1+1
   850     015A  0854               	movf	?___fladd,w
   851     015B  00E8               	movwf	___fltol@f1
   852     015C  318F  2784  3180   	fcall	___fltol
   853     015F  0020               	movlb	0	; select bank0
   854     0160  0868               	movf	?___fltol,w
   855     0161  009B               	movwf	27	;volatile
   856     0162                     l45:
   857     0162  0008               	return
   858     0163                     __end_of_pwm_set_freq:
   859                           
   860                           	psect	text3
   861     03B7                     __ptext3:	
   862 ;; *************** function ___fladd *****************
   863 ;; Defined at:
   864 ;;		line 10 in file "C:\Program Files\Microchip\xc8\v2.40\pic\sources\c99\common\sprcadd.c"
   865 ;; Parameters:    Size  Location     Type
   866 ;;  b               4   52[BANK0 ] void 
   867 ;;  a               4   56[BANK0 ] void 
   868 ;; Auto vars:     Size  Location     Type
   869 ;;  grs             1   71[BANK0 ] unsigned char 
   870 ;;  bexp            1   70[BANK0 ] unsigned char 
   871 ;;  aexp            1   69[BANK0 ] unsigned char 
   872 ;;  signs           1   68[BANK0 ] unsigned char 
   873 ;; Return value:  Size  Location     Type
   874 ;;                  4   52[BANK0 ] unsigned char 
   875 ;; Registers used:
   876 ;;		wreg, status,2, status,0
   877 ;; Tracked objects:
   878 ;;		On entry : 0/0
   879 ;;		On exit  : 0/0
   880 ;;		Unchanged: 0/0
   881 ;; Data sizes:     COMMON   BANK0   BANK1   BANK2   BANK3   BANK4   BANK5   BANK6   BANK7   BANK8   BANK9  BANK10  BANK1
      +1  BANK12
   882 ;;      Params:         0       8       0       0       0       0       0       0       0       0       0       0       
      +0       0
   883 ;;      Locals:         0       4       0       0       0       0       0       0       0       0       0       0       
      +0       0
   884 ;;      Temps:          0       8       0       0       0       0       0       0       0       0       0       0       
      +0       0
   885 ;;      Totals:         0      20       0       0       0       0       0       0       0       0       0       0       
      +0       0
   886 ;;Total ram usage:       20 bytes
   887 ;; Hardware stack levels used: 1
   888 ;; This function calls:
   889 ;;		Nothing
   890 ;; This function is called by:
   891 ;;		_pwm_set_freq
   892 ;; This function uses a non-reentrant model
   893 ;;
   894                           
   895     03B7                     ___fladd:	
   896                           ;psect for function ___fladd
   897                           
   898     03B7                     l1607:	
   899                           ;incstack = 0
   900                           ; Regs used in ___fladd: [wreg+status,2+status,0]
   901                           
   902     03B7  0020               	movlb	0	; select bank0
   903     03B8  0857               	movf	___fladd@b+3,w
   904     03B9  3980               	andlw	128
   905     03BA  00E4               	movwf	___fladd@signs
   906     03BB                     l1609:
   907     03BB  3557               	lslf	___fladd@b+3,w
   908     03BC  00E6               	movwf	___fladd@bexp
   909     03BD                     l1611:
   910     03BD  1FD6               	btfss	___fladd@b+2,7
   911     03BE  2BC0               	goto	u2111
   912     03BF  2BC1               	goto	u2110
   913     03C0                     u2111:
   914     03C0  2BC2               	goto	l1615
   915     03C1                     u2110:
   916     03C1                     l1613:
   917     03C1  1466               	bsf	___fladd@bexp,0
   918     03C2                     l1615:
   919     03C2  0866               	movf	___fladd@bexp,w
   920     03C3  1903               	btfsc	3,2
   921     03C4  2BC6               	goto	u2121
   922     03C5  2BC7               	goto	u2120
   923     03C6                     u2121:
   924     03C6  2BD7               	goto	l1625
   925     03C7                     u2120:
   926     03C7                     l1617:
   927     03C7  0A66               	incf	___fladd@bexp,w
   928     03C8  1D03               	btfss	3,2
   929     03C9  2BCB               	goto	u2131
   930     03CA  2BCC               	goto	u2130
   931     03CB                     u2131:
   932     03CB  2BD4               	goto	l1621
   933     03CC                     u2130:
   934     03CC                     l1619:
   935     03CC  3000               	movlw	0
   936     03CD  00D7               	movwf	___fladd@b+3
   937     03CE  3000               	movlw	0
   938     03CF  00D6               	movwf	___fladd@b+2
   939     03D0  3000               	movlw	0
   940     03D1  00D5               	movwf	___fladd@b+1
   941     03D2  3000               	movlw	0
   942     03D3  00D4               	movwf	___fladd@b
   943     03D4                     l1621:
   944     03D4  17D6               	bsf	___fladd@b+2,7
   945     03D5                     l1623:
   946     03D5  01D7               	clrf	___fladd@b+3
   947     03D6  2BDF               	goto	l1627
   948     03D7                     l1625:
   949     03D7  3000               	movlw	0
   950     03D8  00D7               	movwf	___fladd@b+3
   951     03D9  3000               	movlw	0
   952     03DA  00D6               	movwf	___fladd@b+2
   953     03DB  3000               	movlw	0
   954     03DC  00D5               	movwf	___fladd@b+1
   955     03DD  3000               	movlw	0
   956     03DE  00D4               	movwf	___fladd@b
   957     03DF                     l1627:
   958     03DF  085B               	movf	___fladd@a+3,w
   959     03E0  3980               	andlw	128
   960     03E1  00E5               	movwf	___fladd@aexp
   961     03E2                     l1629:
   962     03E2  0865               	movf	___fladd@aexp,w
   963     03E3  0664               	xorwf	___fladd@signs,w
   964     03E4  1903               	skipnz
   965     03E5  2BE7               	goto	u2141
   966     03E6  2BE8               	goto	u2140
   967     03E7                     u2141:
   968     03E7  2BE9               	goto	l1633
   969     03E8                     u2140:
   970     03E8                     l1631:
   971     03E8  1764               	bsf	___fladd@signs,6
   972     03E9                     l1633:
   973     03E9  355B               	lslf	___fladd@a+3,w
   974     03EA  00E5               	movwf	___fladd@aexp
   975     03EB                     l1635:
   976     03EB  1FDA               	btfss	___fladd@a+2,7
   977     03EC  2BEE               	goto	u2151
   978     03ED  2BEF               	goto	u2150
   979     03EE                     u2151:
   980     03EE  2BF0               	goto	l1639
   981     03EF                     u2150:
   982     03EF                     l1637:
   983     03EF  1465               	bsf	___fladd@aexp,0
   984     03F0                     l1639:
   985     03F0  0865               	movf	___fladd@aexp,w
   986     03F1  1903               	btfsc	3,2
   987     03F2  2BF4               	goto	u2161
   988     03F3  2BF5               	goto	u2160
   989     03F4                     u2161:
   990     03F4  2C05               	goto	l1649
   991     03F5                     u2160:
   992     03F5                     l1641:
   993     03F5  0A65               	incf	___fladd@aexp,w
   994     03F6  1D03               	btfss	3,2
   995     03F7  2BF9               	goto	u2171
   996     03F8  2BFA               	goto	u2170
   997     03F9                     u2171:
   998     03F9  2C02               	goto	l1645
   999     03FA                     u2170:
  1000     03FA                     l1643:
  1001     03FA  3000               	movlw	0
  1002     03FB  00DB               	movwf	___fladd@a+3
  1003     03FC  3000               	movlw	0
  1004     03FD  00DA               	movwf	___fladd@a+2
  1005     03FE  3000               	movlw	0
  1006     03FF  00D9               	movwf	___fladd@a+1
  1007     0400  3000               	movlw	0
  1008     0401  00D8               	movwf	___fladd@a
  1009     0402                     l1645:
  1010     0402  17DA               	bsf	___fladd@a+2,7
  1011     0403                     l1647:
  1012     0403  01DB               	clrf	___fladd@a+3
  1013     0404  2C0D               	goto	l434
  1014     0405                     l1649:
  1015     0405  3000               	movlw	0
  1016     0406  00DB               	movwf	___fladd@a+3
  1017     0407  3000               	movlw	0
  1018     0408  00DA               	movwf	___fladd@a+2
  1019     0409  3000               	movlw	0
  1020     040A  00D9               	movwf	___fladd@a+1
  1021     040B  3000               	movlw	0
  1022     040C  00D8               	movwf	___fladd@a
  1023     040D                     l434:
  1024     040D  0866               	movf	___fladd@bexp,w
  1025     040E  0265               	subwf	___fladd@aexp,w
  1026     040F  1803               	skipnc
  1027     0410  2C12               	goto	u2181
  1028     0411  2C13               	goto	u2180
  1029     0412                     u2181:
  1030     0412  2C39               	goto	l1685
  1031     0413                     u2180:
  1032     0413                     l1651:
  1033     0413  1F64               	btfss	___fladd@signs,6
  1034     0414  2C16               	goto	u2191
  1035     0415  2C17               	goto	u2190
  1036     0416                     u2191:
  1037     0416  2C1B               	goto	l1655
  1038     0417                     u2190:
  1039     0417                     l1653:
  1040     0417  3080               	movlw	128
  1041     0418  00DC               	movwf	??___fladd
  1042     0419  085C               	movf	??___fladd,w
  1043     041A  06E4               	xorwf	___fladd@signs,f
  1044     041B                     l1655:
  1045     041B  0866               	movf	___fladd@bexp,w
  1046     041C  00E7               	movwf	___fladd@grs
  1047     041D                     l1657:
  1048     041D  0865               	movf	___fladd@aexp,w
  1049     041E  00E6               	movwf	___fladd@bexp
  1050     041F                     l1659:
  1051     041F  0867               	movf	___fladd@grs,w
  1052     0420  00E5               	movwf	___fladd@aexp
  1053     0421                     l1661:
  1054     0421  0854               	movf	___fladd@b,w
  1055     0422  00E7               	movwf	___fladd@grs
  1056     0423                     l1663:
  1057     0423  0858               	movf	___fladd@a,w
  1058     0424  00D4               	movwf	___fladd@b
  1059     0425                     l1665:
  1060     0425  0867               	movf	___fladd@grs,w
  1061     0426  00D8               	movwf	___fladd@a
  1062     0427                     l1667:
  1063     0427  0855               	movf	___fladd@b+1,w
  1064     0428  00E7               	movwf	___fladd@grs
  1065     0429                     l1669:
  1066     0429  0859               	movf	___fladd@a+1,w
  1067     042A  00D5               	movwf	___fladd@b+1
  1068     042B                     l1671:
  1069     042B  0867               	movf	___fladd@grs,w
  1070     042C  00D9               	movwf	___fladd@a+1
  1071     042D                     l1673:
  1072     042D  0856               	movf	___fladd@b+2,w
  1073     042E  00E7               	movwf	___fladd@grs
  1074     042F                     l1675:
  1075     042F  085A               	movf	___fladd@a+2,w
  1076     0430  00D6               	movwf	___fladd@b+2
  1077     0431                     l1677:
  1078     0431  0867               	movf	___fladd@grs,w
  1079     0432  00DA               	movwf	___fladd@a+2
  1080     0433                     l1679:
  1081     0433  0857               	movf	___fladd@b+3,w
  1082     0434  00E7               	movwf	___fladd@grs
  1083     0435                     l1681:
  1084     0435  085B               	movf	___fladd@a+3,w
  1085     0436  00D7               	movwf	___fladd@b+3
  1086     0437                     l1683:
  1087     0437  0867               	movf	___fladd@grs,w
  1088     0438  00DB               	movwf	___fladd@a+3
  1089     0439                     l1685:
  1090     0439  01E7               	clrf	___fladd@grs
  1091     043A                     l1687:
  1092     043A  0865               	movf	___fladd@aexp,w
  1093     043B  00DC               	movwf	??___fladd
  1094     043C  01DD               	clrf	??___fladd+1
  1095     043D  085D               	movf	??___fladd+1,w
  1096     043E  00DF               	movwf	??___fladd+3
  1097     043F  0866               	movf	___fladd@bexp,w
  1098     0440  025C               	subwf	??___fladd,w
  1099     0441  00DE               	movwf	??___fladd+2
  1100     0442  1C03               	skipc
  1101     0443  03DF               	decf	??___fladd+3,f
  1102     0444  085F               	movf	??___fladd+3,w
  1103     0445  3A80               	xorlw	128
  1104     0446  00E0               	movwf	??___fladd+4
  1105     0447  3080               	movlw	128
  1106     0448  0260               	subwf	??___fladd+4,w
  1107     0449  1D03               	skipz
  1108     044A  2C4D               	goto	u2205
  1109     044B  301A               	movlw	26
  1110     044C  025E               	subwf	??___fladd+2,w
  1111     044D                     u2205:
  1112     044D  1C03               	skipc
  1113     044E  2C50               	goto	u2201
  1114     044F  2C51               	goto	u2200
  1115     0450                     u2201:
  1116     0450  2C83               	goto	l1703
  1117     0451                     u2200:
  1118     0451                     l1689:
  1119     0451  0020               	movlb	0	; select bank0
  1120     0452  0857               	movf	___fladd@b+3,w
  1121     0453  0456               	iorwf	___fladd@b+2,w
  1122     0454  0455               	iorwf	___fladd@b+1,w
  1123     0455  0454               	iorwf	___fladd@b,w
  1124     0456  1D03               	skipz
  1125     0457  2C59               	goto	u2211
  1126     0458  2C5B               	goto	u2210
  1127     0459                     u2211:
  1128     0459  3001               	movlw	1
  1129     045A  2C5C               	goto	u2220
  1130     045B                     u2210:
  1131     045B  3000               	movlw	0
  1132     045C                     u2220:
  1133     045C  00E7               	movwf	___fladd@grs
  1134     045D  3000               	movlw	0
  1135     045E  00D7               	movwf	___fladd@b+3
  1136     045F  3000               	movlw	0
  1137     0460  00D6               	movwf	___fladd@b+2
  1138     0461  3000               	movlw	0
  1139     0462  00D5               	movwf	___fladd@b+1
  1140     0463  3000               	movlw	0
  1141     0464  00D4               	movwf	___fladd@b
  1142     0465  0865               	movf	___fladd@aexp,w
  1143     0466  00E6               	movwf	___fladd@bexp
  1144     0467  2C8A               	goto	l438
  1145     0468                     l440:
  1146     0468  1C67               	btfss	___fladd@grs,0
  1147     0469  2C6B               	goto	u2231
  1148     046A  2C6C               	goto	u2230
  1149     046B                     u2231:
  1150     046B  2C70               	goto	l1693
  1151     046C                     u2230:
  1152     046C                     l1691:
  1153     046C  3667               	lsrf	___fladd@grs,w
  1154     046D  3801               	iorlw	1
  1155     046E  00E7               	movwf	___fladd@grs
  1156     046F  2C72               	goto	l1695
  1157     0470                     l1693:
  1158     0470  1003               	clrc
  1159     0471  0CE7               	rrf	___fladd@grs,f
  1160     0472                     l1695:
  1161     0472  1C54               	btfss	___fladd@b,0
  1162     0473  2C75               	goto	u2241
  1163     0474  2C76               	goto	u2240
  1164     0475                     u2241:
  1165     0475  2C77               	goto	l1699
  1166     0476                     u2240:
  1167     0476                     l1697:
  1168     0476  17E7               	bsf	___fladd@grs,7
  1169     0477                     l1699:
  1170     0477  3001               	movlw	1
  1171     0478  00DC               	movwf	??___fladd
  1172     0479                     u2255:
  1173     0479  37D7               	asrf	___fladd@b+3,f
  1174     047A  0CD6               	rrf	___fladd@b+2,f
  1175     047B  0CD5               	rrf	___fladd@b+1,f
  1176     047C  0CD4               	rrf	___fladd@b,f
  1177     047D  0BDC               	decfsz	??___fladd& (0+127),f
  1178     047E  2C79               	goto	u2255
  1179     047F                     l1701:
  1180     047F  3001               	movlw	1
  1181     0480  00DC               	movwf	??___fladd
  1182     0481  085C               	movf	??___fladd,w
  1183     0482  07E6               	addwf	___fladd@bexp,f
  1184     0483                     l1703:
  1185     0483  0020               	movlb	0	; select bank0
  1186     0484  0865               	movf	___fladd@aexp,w
  1187     0485  0266               	subwf	___fladd@bexp,w
  1188     0486  1C03               	skipc
  1189     0487  2C89               	goto	u2261
  1190     0488  2C8A               	goto	u2260
  1191     0489                     u2261:
  1192     0489  2C68               	goto	l440
  1193     048A                     u2260:
  1194     048A                     l438:
  1195     048A  1B64               	btfsc	___fladd@signs,6
  1196     048B  2C8D               	goto	u2271
  1197     048C  2C8E               	goto	u2270
  1198     048D                     u2271:
  1199     048D  2CC4               	goto	l1729
  1200     048E                     u2270:
  1201     048E                     l1705:
  1202     048E  0866               	movf	___fladd@bexp,w
  1203     048F  1D03               	btfss	3,2
  1204     0490  2C92               	goto	u2281
  1205     0491  2C93               	goto	u2280
  1206     0492                     u2281:
  1207     0492  2C9C               	goto	l1711
  1208     0493                     u2280:
  1209     0493                     l1707:
  1210     0493  3000               	movlw	0
  1211     0494  00D7               	movwf	?___fladd+3
  1212     0495  3000               	movlw	0
  1213     0496  00D6               	movwf	?___fladd+2
  1214     0497  3000               	movlw	0
  1215     0498  00D5               	movwf	?___fladd+1
  1216     0499  3000               	movlw	0
  1217     049A  00D4               	movwf	?___fladd
  1218     049B  2DBE               	goto	l447
  1219     049C                     l1711:
  1220     049C  0858               	movf	___fladd@a,w
  1221     049D  07D4               	addwf	___fladd@b,f
  1222     049E  0859               	movf	___fladd@a+1,w
  1223     049F  3DD5               	addwfc	___fladd@b+1,f
  1224     04A0  085A               	movf	___fladd@a+2,w
  1225     04A1  3DD6               	addwfc	___fladd@b+2,f
  1226     04A2  085B               	movf	___fladd@a+3,w
  1227     04A3  3DD7               	addwfc	___fladd@b+3,f
  1228     04A4                     l1713:
  1229     04A4  1C57               	btfss	___fladd@b+3,0
  1230     04A5  2CA7               	goto	u2291
  1231     04A6  2CA8               	goto	u2290
  1232     04A7                     u2291:
  1233     04A7  2D50               	goto	l1763
  1234     04A8                     u2290:
  1235     04A8                     l1715:
  1236     04A8  1C67               	btfss	___fladd@grs,0
  1237     04A9  2CAB               	goto	u2301
  1238     04AA  2CAC               	goto	u2300
  1239     04AB                     u2301:
  1240     04AB  2CB0               	goto	l1719
  1241     04AC                     u2300:
  1242     04AC                     l1717:
  1243     04AC  3667               	lsrf	___fladd@grs,w
  1244     04AD  3801               	iorlw	1
  1245     04AE  00E7               	movwf	___fladd@grs
  1246     04AF  2CB2               	goto	l1721
  1247     04B0                     l1719:
  1248     04B0  1003               	clrc
  1249     04B1  0CE7               	rrf	___fladd@grs,f
  1250     04B2                     l1721:
  1251     04B2  1C54               	btfss	___fladd@b,0
  1252     04B3  2CB5               	goto	u2311
  1253     04B4  2CB6               	goto	u2310
  1254     04B5                     u2311:
  1255     04B5  2CB7               	goto	l1725
  1256     04B6                     u2310:
  1257     04B6                     l1723:
  1258     04B6  17E7               	bsf	___fladd@grs,7
  1259     04B7                     l1725:
  1260     04B7  3001               	movlw	1
  1261     04B8  00DC               	movwf	??___fladd
  1262     04B9                     u2325:
  1263     04B9  37D7               	asrf	___fladd@b+3,f
  1264     04BA  0CD6               	rrf	___fladd@b+2,f
  1265     04BB  0CD5               	rrf	___fladd@b+1,f
  1266     04BC  0CD4               	rrf	___fladd@b,f
  1267     04BD  0BDC               	decfsz	??___fladd& (0+127),f
  1268     04BE  2CB9               	goto	u2325
  1269     04BF                     l1727:
  1270     04BF  3001               	movlw	1
  1271     04C0  00DC               	movwf	??___fladd
  1272     04C1  085C               	movf	??___fladd,w
  1273     04C2  07E6               	addwf	___fladd@bexp,f
  1274     04C3  2D50               	goto	l1763
  1275     04C4                     l1729:
  1276     04C4  0857               	movf	___fladd@b+3,w
  1277     04C5  3A80               	xorlw	128
  1278     04C6  00DC               	movwf	??___fladd
  1279     04C7  085B               	movf	___fladd@a+3,w
  1280     04C8  3A80               	xorlw	128
  1281     04C9  025C               	subwf	??___fladd,w
  1282     04CA  1D03               	skipz
  1283     04CB  2CD6               	goto	u2333
  1284     04CC  085A               	movf	___fladd@a+2,w
  1285     04CD  0256               	subwf	___fladd@b+2,w
  1286     04CE  1D03               	skipz
  1287     04CF  2CD6               	goto	u2333
  1288     04D0  0859               	movf	___fladd@a+1,w
  1289     04D1  0255               	subwf	___fladd@b+1,w
  1290     04D2  1D03               	skipz
  1291     04D3  2CD6               	goto	u2333
  1292     04D4  0858               	movf	___fladd@a,w
  1293     04D5  0254               	subwf	___fladd@b,w
  1294     04D6                     u2333:
  1295     04D6  1803               	skipnc
  1296     04D7  2CD9               	goto	u2331
  1297     04D8  2CDA               	goto	u2330
  1298     04D9                     u2331:
  1299     04D9  2D12               	goto	l1739
  1300     04DA                     u2330:
  1301     04DA                     l1731:
  1302     04DA  30FF               	movlw	255
  1303     04DB  00DC               	movwf	??___fladd
  1304     04DC  30FF               	movlw	255
  1305     04DD  00DD               	movwf	??___fladd+1
  1306     04DE  30FF               	movlw	255
  1307     04DF  00DE               	movwf	??___fladd+2
  1308     04E0  30FF               	movlw	255
  1309     04E1  00DF               	movwf	??___fladd+3
  1310     04E2  0854               	movf	___fladd@b,w
  1311     04E3  0258               	subwf	___fladd@a,w
  1312     04E4  00E0               	movwf	??___fladd+4
  1313     04E5  0855               	movf	___fladd@b+1,w
  1314     04E6  3B59               	subwfb	___fladd@a+1,w
  1315     04E7  00E1               	movwf	??___fladd+5
  1316     04E8  0856               	movf	___fladd@b+2,w
  1317     04E9  3B5A               	subwfb	___fladd@a+2,w
  1318     04EA  00E2               	movwf	??___fladd+6
  1319     04EB  0857               	movf	___fladd@b+3,w
  1320     04EC  3B5B               	subwfb	___fladd@a+3,w
  1321     04ED  00E3               	movwf	??___fladd+7
  1322     04EE  0860               	movf	??___fladd+4,w
  1323     04EF  07DC               	addwf	??___fladd,f
  1324     04F0  0861               	movf	??___fladd+5,w
  1325     04F1  3DDD               	addwfc	??___fladd+1,f
  1326     04F2  0862               	movf	??___fladd+6,w
  1327     04F3  3DDE               	addwfc	??___fladd+2,f
  1328     04F4  0863               	movf	??___fladd+7,w
  1329     04F5  3DDF               	addwfc	??___fladd+3,f
  1330     04F6  085F               	movf	??___fladd+3,w
  1331     04F7  00D7               	movwf	___fladd@b+3
  1332     04F8  085E               	movf	??___fladd+2,w
  1333     04F9  00D6               	movwf	___fladd@b+2
  1334     04FA  085D               	movf	??___fladd+1,w
  1335     04FB  00D5               	movwf	___fladd@b+1
  1336     04FC  085C               	movf	??___fladd,w
  1337     04FD  00D4               	movwf	___fladd@b
  1338     04FE                     l1733:
  1339     04FE  3080               	movlw	128
  1340     04FF  00DC               	movwf	??___fladd
  1341     0500  085C               	movf	??___fladd,w
  1342     0501  06E4               	xorwf	___fladd@signs,f
  1343     0502  09E7               	comf	___fladd@grs,f
  1344     0503  0AE7               	incf	___fladd@grs,f
  1345     0504                     l1735:
  1346     0504  0867               	movf	___fladd@grs,w
  1347     0505  1D03               	btfss	3,2
  1348     0506  2D08               	goto	u2341
  1349     0507  2D09               	goto	u2340
  1350     0508                     u2341:
  1351     0508  2D1A               	goto	l455
  1352     0509                     u2340:
  1353     0509                     l1737:
  1354     0509  3001               	movlw	1
  1355     050A  07D4               	addwf	___fladd@b,f
  1356     050B  3000               	movlw	0
  1357     050C  3DD5               	addwfc	___fladd@b+1,f
  1358     050D  3000               	movlw	0
  1359     050E  3DD6               	addwfc	___fladd@b+2,f
  1360     050F  3000               	movlw	0
  1361     0510  3DD7               	addwfc	___fladd@b+3,f
  1362     0511  2D1A               	goto	l455
  1363     0512                     l1739:
  1364     0512  0858               	movf	___fladd@a,w
  1365     0513  02D4               	subwf	___fladd@b,f
  1366     0514  0859               	movf	___fladd@a+1,w
  1367     0515  3BD5               	subwfb	___fladd@b+1,f
  1368     0516  085A               	movf	___fladd@a+2,w
  1369     0517  3BD6               	subwfb	___fladd@b+2,f
  1370     0518  085B               	movf	___fladd@a+3,w
  1371     0519  3BD7               	subwfb	___fladd@b+3,f
  1372     051A                     l455:
  1373     051A  0857               	movf	___fladd@b+3,w
  1374     051B  0456               	iorwf	___fladd@b+2,w
  1375     051C  0455               	iorwf	___fladd@b+1,w
  1376     051D  0454               	iorwf	___fladd@b,w
  1377     051E  1D03               	skipz
  1378     051F  2D21               	goto	u2351
  1379     0520  2D22               	goto	u2350
  1380     0521                     u2351:
  1381     0521  2D4C               	goto	l1761
  1382     0522                     u2350:
  1383     0522                     l1741:
  1384     0522  0867               	movf	___fladd@grs,w
  1385     0523  1D03               	btfss	3,2
  1386     0524  2D26               	goto	u2361
  1387     0525  2D27               	goto	u2360
  1388     0526                     u2361:
  1389     0526  2D4C               	goto	l1761
  1390     0527                     u2360:
  1391     0527                     l1743:
  1392     0527  3000               	movlw	0
  1393     0528  00D7               	movwf	?___fladd+3
  1394     0529  3000               	movlw	0
  1395     052A  00D6               	movwf	?___fladd+2
  1396     052B  3000               	movlw	0
  1397     052C  00D5               	movwf	?___fladd+1
  1398     052D  3000               	movlw	0
  1399     052E  00D4               	movwf	?___fladd
  1400     052F  2DBE               	goto	l447
  1401     0530                     l1747:
  1402     0530  3001               	movlw	1
  1403     0531                     u2375:
  1404     0531  35D4               	lslf	___fladd@b,f
  1405     0532  0DD5               	rlf	___fladd@b+1,f
  1406     0533  0DD6               	rlf	___fladd@b+2,f
  1407     0534  0DD7               	rlf	___fladd@b+3,f
  1408     0535  0B89               	decfsz	9,f
  1409     0536  2D31               	goto	u2375
  1410     0537                     l1749:
  1411     0537  1FE7               	btfss	___fladd@grs,7
  1412     0538  2D3A               	goto	u2381
  1413     0539  2D3B               	goto	u2380
  1414     053A                     u2381:
  1415     053A  2D3C               	goto	l459
  1416     053B                     u2380:
  1417     053B                     l1751:
  1418     053B  1454               	bsf	___fladd@b,0
  1419     053C                     l459:
  1420     053C  1C67               	btfss	___fladd@grs,0
  1421     053D  2D3F               	goto	u2391
  1422     053E  2D40               	goto	u2390
  1423     053F                     u2391:
  1424     053F  2D43               	goto	l1755
  1425     0540                     u2390:
  1426     0540                     l1753:
  1427     0540  1403               	setc
  1428     0541  0DE7               	rlf	___fladd@grs,f
  1429     0542  2D45               	goto	l1757
  1430     0543                     l1755:
  1431     0543  1003               	clrc
  1432     0544  0DE7               	rlf	___fladd@grs,f
  1433     0545                     l1757:
  1434     0545  0866               	movf	___fladd@bexp,w
  1435     0546  1903               	btfsc	3,2
  1436     0547  2D49               	goto	u2401
  1437     0548  2D4A               	goto	u2400
  1438     0549                     u2401:
  1439     0549  2D4C               	goto	l1761
  1440     054A                     u2400:
  1441     054A                     l1759:
  1442     054A  3001               	movlw	1
  1443     054B  02E6               	subwf	___fladd@bexp,f
  1444     054C                     l1761:
  1445     054C  1FD6               	btfss	___fladd@b+2,7
  1446     054D  2D4F               	goto	u2411
  1447     054E  2D50               	goto	u2410
  1448     054F                     u2411:
  1449     054F  2D30               	goto	l1747
  1450     0550                     u2410:
  1451     0550                     l1763:
  1452     0550  01E5               	clrf	___fladd@aexp
  1453     0551                     l1765:
  1454     0551  1FE7               	btfss	___fladd@grs,7
  1455     0552  2D54               	goto	u2421
  1456     0553  2D55               	goto	u2420
  1457     0554                     u2421:
  1458     0554  2D63               	goto	l1773
  1459     0555                     u2420:
  1460     0555                     l1767:
  1461     0555  0867               	movf	___fladd@grs,w
  1462     0556  397F               	andlw	127
  1463     0557  1903               	btfsc	3,2
  1464     0558  2D5A               	goto	u2431
  1465     0559  2D5B               	goto	u2430
  1466     055A                     u2431:
  1467     055A  2D5E               	goto	l465
  1468     055B                     u2430:
  1469     055B                     l1769:
  1470     055B  01E5               	clrf	___fladd@aexp
  1471     055C  0AE5               	incf	___fladd@aexp,f
  1472     055D  2D63               	goto	l1773
  1473     055E                     l465:
  1474     055E  1C54               	btfss	___fladd@b,0
  1475     055F  2D61               	goto	u2441
  1476     0560  2D62               	goto	u2440
  1477     0561                     u2441:
  1478     0561  2D63               	goto	l1773
  1479     0562                     u2440:
  1480     0562  2D5B               	goto	l1769
  1481     0563                     l1773:
  1482     0563  0865               	movf	___fladd@aexp,w
  1483     0564  1903               	btfsc	3,2
  1484     0565  2D67               	goto	u2451
  1485     0566  2D68               	goto	u2450
  1486     0567                     u2451:
  1487     0567  2D95               	goto	l468
  1488     0568                     u2450:
  1489     0568                     l1775:
  1490     0568  3001               	movlw	1
  1491     0569  07D4               	addwf	___fladd@b,f
  1492     056A  3000               	movlw	0
  1493     056B  3DD5               	addwfc	___fladd@b+1,f
  1494     056C  3000               	movlw	0
  1495     056D  3DD6               	addwfc	___fladd@b+2,f
  1496     056E  3000               	movlw	0
  1497     056F  3DD7               	addwfc	___fladd@b+3,f
  1498     0570                     l1777:
  1499     0570  1C57               	btfss	___fladd@b+3,0
  1500     0571  2D73               	goto	u2461
  1501     0572  2D74               	goto	u2460
  1502     0573                     u2461:
  1503     0573  2D95               	goto	l468
  1504     0574                     u2460:
  1505     0574                     l1779:
  1506     0574  0854               	movf	___fladd@b,w
  1507     0575  00DC               	movwf	??___fladd
  1508     0576  0855               	movf	___fladd@b+1,w
  1509     0577  00DD               	movwf	??___fladd+1
  1510     0578  0856               	movf	___fladd@b+2,w
  1511     0579  00DE               	movwf	??___fladd+2
  1512     057A  0857               	movf	___fladd@b+3,w
  1513     057B  00DF               	movwf	??___fladd+3
  1514     057C  3001               	movlw	1
  1515     057D  00E0               	movwf	??___fladd+4
  1516     057E                     u2475:
  1517     057E  37DF               	asrf	??___fladd+3,f
  1518     057F  0CDE               	rrf	??___fladd+2,f
  1519     0580  0CDD               	rrf	??___fladd+1,f
  1520     0581  0CDC               	rrf	??___fladd,f
  1521     0582                     u2470:
  1522     0582  0BE0               	decfsz	??___fladd+4,f
  1523     0583  2D7E               	goto	u2475
  1524     0584  085F               	movf	??___fladd+3,w
  1525     0585  00D7               	movwf	___fladd@b+3
  1526     0586  085E               	movf	??___fladd+2,w
  1527     0587  00D6               	movwf	___fladd@b+2
  1528     0588  085D               	movf	??___fladd+1,w
  1529     0589  00D5               	movwf	___fladd@b+1
  1530     058A  085C               	movf	??___fladd,w
  1531     058B  00D4               	movwf	___fladd@b
  1532     058C  0A66               	incf	___fladd@bexp,w
  1533     058D  1903               	btfsc	3,2
  1534     058E  2D90               	goto	u2481
  1535     058F  2D91               	goto	u2480
  1536     0590                     u2481:
  1537     0590  2D95               	goto	l468
  1538     0591                     u2480:
  1539     0591                     l1781:
  1540     0591  3001               	movlw	1
  1541     0592  00DC               	movwf	??___fladd
  1542     0593  085C               	movf	??___fladd,w
  1543     0594  07E6               	addwf	___fladd@bexp,f
  1544     0595                     l468:
  1545     0595  0A66               	incf	___fladd@bexp,w
  1546     0596  1903               	btfsc	3,2
  1547     0597  2D99               	goto	u2491
  1548     0598  2D9A               	goto	u2490
  1549     0599                     u2491:
  1550     0599  2D9F               	goto	l1785
  1551     059A                     u2490:
  1552     059A                     l1783:
  1553     059A  0866               	movf	___fladd@bexp,w
  1554     059B  1D03               	btfss	3,2
  1555     059C  2D9E               	goto	u2501
  1556     059D  2D9F               	goto	u2500
  1557     059E                     u2501:
  1558     059E  2DAD               	goto	l1791
  1559     059F                     u2500:
  1560     059F                     l1785:
  1561     059F  3000               	movlw	0
  1562     05A0  00D7               	movwf	___fladd@b+3
  1563     05A1  3000               	movlw	0
  1564     05A2  00D6               	movwf	___fladd@b+2
  1565     05A3  3000               	movlw	0
  1566     05A4  00D5               	movwf	___fladd@b+1
  1567     05A5  3000               	movlw	0
  1568     05A6  00D4               	movwf	___fladd@b
  1569     05A7                     l1787:
  1570     05A7  0866               	movf	___fladd@bexp,w
  1571     05A8  1D03               	btfss	3,2
  1572     05A9  2DAB               	goto	u2511
  1573     05AA  2DAC               	goto	u2510
  1574     05AB                     u2511:
  1575     05AB  2DAD               	goto	l1791
  1576     05AC                     u2510:
  1577     05AC                     l1789:
  1578     05AC  01E4               	clrf	___fladd@signs
  1579     05AD                     l1791:
  1580     05AD  1C66               	btfss	___fladd@bexp,0
  1581     05AE  2DB0               	goto	u2521
  1582     05AF  2DB1               	goto	u2520
  1583     05B0                     u2521:
  1584     05B0  2DB3               	goto	l1795
  1585     05B1                     u2520:
  1586     05B1                     l1793:
  1587     05B1  17D6               	bsf	___fladd@b+2,7
  1588     05B2  2DB7               	goto	l476
  1589     05B3                     l1795:
  1590     05B3  307F               	movlw	127
  1591     05B4  00DC               	movwf	??___fladd
  1592     05B5  085C               	movf	??___fladd,w
  1593     05B6  05D6               	andwf	___fladd@b+2,f
  1594     05B7                     l476:
  1595     05B7  3666               	lsrf	___fladd@bexp,w
  1596     05B8  00D7               	movwf	___fladd@b+3
  1597     05B9                     l1797:
  1598     05B9  1FE4               	btfss	___fladd@signs,7
  1599     05BA  2DBC               	goto	u2531
  1600     05BB  2DBD               	goto	u2530
  1601     05BC                     u2531:
  1602     05BC  2DBE               	goto	l477
  1603     05BD                     u2530:
  1604     05BD                     l1799:
  1605     05BD  17D7               	bsf	___fladd@b+3,7
  1606     05BE                     l477:
  1607     05BE                     l447:
  1608     05BE  0008               	return
  1609     05BF                     __end_of___fladd:
  1610                           
  1611                           	psect	text4
  1612     000A                     __ptext4:	
  1613 ;; *************** function _pwm1_set_duty *****************
  1614 ;; Defined at:
  1615 ;;		line 14 in file "./pwm1.h"
  1616 ;; Parameters:    Size  Location     Type
  1617 ;;  dutyInput       2   10[BANK1 ] unsigned int 
  1618 ;; Auto vars:     Size  Location     Type
  1619 ;;  duty            2   18[BANK1 ] unsigned int 
  1620 ;; Return value:  Size  Location     Type
  1621 ;;                  1    wreg      void 
  1622 ;; Registers used:
  1623 ;;		wreg, status,2, status,0, pclath, cstack
  1624 ;; Tracked objects:
  1625 ;;		On entry : 0/0
  1626 ;;		On exit  : 0/0
  1627 ;;		Unchanged: 0/0
  1628 ;; Data sizes:     COMMON   BANK0   BANK1   BANK2   BANK3   BANK4   BANK5   BANK6   BANK7   BANK8   BANK9  BANK10  BANK1
      +1  BANK12
  1629 ;;      Params:         0       0       2       0       0       0       0       0       0       0       0       0       
      +0       0
  1630 ;;      Locals:         0       0       6       0       0       0       0       0       0       0       0       0       
      +0       0
  1631 ;;      Temps:          0       0       2       0       0       0       0       0       0       0       0       0       
      +0       0
  1632 ;;      Totals:         0       0      10       0       0       0       0       0       0       0       0       0       
      +0       0
  1633 ;;Total ram usage:       10 bytes
  1634 ;; Hardware stack levels used: 1
  1635 ;; Hardware stack levels required when called: 3
  1636 ;; This function calls:
  1637 ;;		___xxtofl
  1638 ;;		_pwm_calculate_duty
  1639 ;; This function is called by:
  1640 ;;		_main
  1641 ;; This function uses a non-reentrant model
  1642 ;;
  1643                           
  1644     000A                     _pwm1_set_duty:	
  1645                           ;psect for function _pwm1_set_duty
  1646                           
  1647     000A                     l1807:	
  1648                           ;incstack = 0
  1649                           ; Regs used in _pwm1_set_duty: [wreg+status,2+status,0+pclath+cstack]
  1650                           
  1651                           
  1652                           ;./pwm1.h: 15:     unsigned int duty = pwm_calculate_duty(dutyInput);
  1653     000A  0021               	movlb	1	; select bank1
  1654     000B  082A               	movf	pwm1_set_duty@dutyInput^(0+128),w
  1655     000C  00F0               	movwf	___xxtofl@val
  1656     000D  082B               	movf	(pwm1_set_duty@dutyInput+1)^(0+128),w
  1657     000E  00F1               	movwf	___xxtofl@val+1
  1658     000F  01F2               	clrf	___xxtofl@val+2
  1659     0010  01F3               	clrf	___xxtofl@val+3
  1660     0011  3000               	movlw	0
  1661     0012  3181  2163  3180   	fcall	___xxtofl
  1662     0015  0873               	movf	?___xxtofl+3,w
  1663     0016  0021               	movlb	1	; select bank1
  1664     0017  00B1               	movwf	(_pwm1_set_duty$686+3)^(0+128)
  1665     0018  0872               	movf	?___xxtofl+2,w
  1666     0019  00B0               	movwf	(_pwm1_set_duty$686+2)^(0+128)
  1667     001A  0871               	movf	?___xxtofl+1,w
  1668     001B  00AF               	movwf	(_pwm1_set_duty$686+1)^(0+128)
  1669     001C  0870               	movf	?___xxtofl,w
  1670     001D  00AE               	movwf	_pwm1_set_duty$686^(0+128)
  1671                           
  1672                           ;./pwm1.h: 15:     unsigned int duty = pwm_calculate_duty(dutyInput);
  1673     001E  0831               	movf	(_pwm1_set_duty$686+3)^(0+128),w
  1674     001F  00A5               	movwf	(pwm_calculate_duty@duty+3)^(0+128)
  1675     0020  0830               	movf	(_pwm1_set_duty$686+2)^(0+128),w
  1676     0021  00A4               	movwf	(pwm_calculate_duty@duty+2)^(0+128)
  1677     0022  082F               	movf	(_pwm1_set_duty$686+1)^(0+128),w
  1678     0023  00A3               	movwf	(pwm_calculate_duty@duty+1)^(0+128)
  1679     0024  082E               	movf	_pwm1_set_duty$686^(0+128),w
  1680     0025  00A2               	movwf	pwm_calculate_duty@duty^(0+128)
  1681     0026  3180  2065  3180   	fcall	_pwm_calculate_duty
  1682     0029  0021               	movlb	1	; select bank1
  1683     002A  0823               	movf	(?_pwm_calculate_duty+1)^(0+128),w
  1684     002B  00B3               	movwf	(pwm1_set_duty@duty+1)^(0+128)
  1685     002C  0822               	movf	?_pwm_calculate_duty^(0+128),w
  1686     002D  00B2               	movwf	pwm1_set_duty@duty^(0+128)
  1687     002E                     l1809:
  1688                           
  1689                           ;./pwm1.h: 16:     if (duty == 0 && dutyInput != 0) duty = 1;
  1690     002E  0832               	movf	pwm1_set_duty@duty^(0+128),w
  1691     002F  0433               	iorwf	(pwm1_set_duty@duty+1)^(0+128),w
  1692     0030  1D03               	btfss	3,2
  1693     0031  2833               	goto	u2541
  1694     0032  2834               	goto	u2540
  1695     0033                     u2541:
  1696     0033  283E               	goto	l1815
  1697     0034                     u2540:
  1698     0034                     l1811:
  1699     0034  082A               	movf	pwm1_set_duty@dutyInput^(0+128),w
  1700     0035  042B               	iorwf	(pwm1_set_duty@dutyInput+1)^(0+128),w
  1701     0036  1903               	btfsc	3,2
  1702     0037  2839               	goto	u2551
  1703     0038  283A               	goto	u2550
  1704     0039                     u2551:
  1705     0039  283E               	goto	l1815
  1706     003A                     u2550:
  1707     003A                     l1813:
  1708     003A  3001               	movlw	1
  1709     003B  00B2               	movwf	pwm1_set_duty@duty^(0+128)
  1710     003C  3000               	movlw	0
  1711     003D  00B3               	movwf	(pwm1_set_duty@duty^(0+128)+1)
  1712     003E                     l1815:
  1713                           
  1714                           ;./pwm1.h: 17:     CCP1CONbits.DC1B1 = duty & 2;
  1715     003E  0832               	movf	pwm1_set_duty@duty^(0+128),w
  1716     003F  3902               	andlw	2
  1717     0040  00AC               	movwf	??_pwm1_set_duty^(0+128)
  1718     0041  0EAC               	swapf	??_pwm1_set_duty^(0+128),f
  1719     0042  0DAC               	rlf	??_pwm1_set_duty^(0+128),f
  1720     0043  0025               	movlb	5	; select bank5
  1721     0044  0813               	movf	19,w	;volatile
  1722     0045  0021               	movlb	1	; select bank1
  1723     0046  062C               	xorwf	??_pwm1_set_duty^(0+128),w
  1724     0047  39DF               	andlw	-33
  1725     0048  062C               	xorwf	??_pwm1_set_duty^(0+128),w
  1726     0049  0025               	movlb	5	; select bank5
  1727     004A  0093               	movwf	19	;volatile
  1728     004B                     l1817:
  1729                           
  1730                           ;./pwm1.h: 18:     CCP1CONbits.DC1B0 = duty & 1;
  1731     004B  0021               	movlb	1	; select bank1
  1732     004C  0832               	movf	pwm1_set_duty@duty^(0+128),w
  1733     004D  3901               	andlw	1
  1734     004E  00AC               	movwf	??_pwm1_set_duty^(0+128)
  1735     004F  0EAC               	swapf	??_pwm1_set_duty^(0+128),f
  1736     0050  0025               	movlb	5	; select bank5
  1737     0051  0813               	movf	19,w	;volatile
  1738     0052  0021               	movlb	1	; select bank1
  1739     0053  062C               	xorwf	??_pwm1_set_duty^(0+128),w
  1740     0054  39EF               	andlw	-17
  1741     0055  062C               	xorwf	??_pwm1_set_duty^(0+128),w
  1742     0056  0025               	movlb	5	; select bank5
  1743     0057  0093               	movwf	19	;volatile
  1744     0058                     l1819:
  1745                           
  1746                           ;./pwm1.h: 19:     CCPR1L = (unsigned char) (duty >> 2);
  1747     0058  0021               	movlb	1	; select bank1
  1748     0059  0833               	movf	(pwm1_set_duty@duty+1)^(0+128),w
  1749     005A  00AD               	movwf	(??_pwm1_set_duty^(0+128)+1)
  1750     005B  0832               	movf	pwm1_set_duty@duty^(0+128),w
  1751     005C  00AC               	movwf	??_pwm1_set_duty^(0+128)
  1752     005D  36AD               	lsrf	(??_pwm1_set_duty^(0+128)+1),f
  1753     005E  0CAC               	rrf	??_pwm1_set_duty^(0+128),f
  1754     005F  36AD               	lsrf	(??_pwm1_set_duty^(0+128)+1),f
  1755     0060  0CAC               	rrf	??_pwm1_set_duty^(0+128),f
  1756     0061  082C               	movf	??_pwm1_set_duty^(0+128),w
  1757     0062  0025               	movlb	5	; select bank5
  1758     0063  0091               	movwf	17	;volatile
  1759     0064                     l52:
  1760     0064  0008               	return
  1761     0065                     __end_of_pwm1_set_duty:
  1762                           
  1763                           	psect	text5
  1764     0065                     __ptext5:	
  1765 ;; *************** function _pwm_calculate_duty *****************
  1766 ;; Defined at:
  1767 ;;		line 17 in file "./pwm.h"
  1768 ;; Parameters:    Size  Location     Type
  1769 ;;  duty            4    2[BANK1 ] void 
  1770 ;; Auto vars:     Size  Location     Type
  1771 ;;		None
  1772 ;; Return value:  Size  Location     Type
  1773 ;;                  2    2[BANK1 ] unsigned int 
  1774 ;; Registers used:
  1775 ;;		wreg, status,2, status,0, pclath, cstack
  1776 ;; Tracked objects:
  1777 ;;		On entry : 0/0
  1778 ;;		On exit  : 0/0
  1779 ;;		Unchanged: 0/0
  1780 ;; Data sizes:     COMMON   BANK0   BANK1   BANK2   BANK3   BANK4   BANK5   BANK6   BANK7   BANK8   BANK9  BANK10  BANK1
      +1  BANK12
  1781 ;;      Params:         0       0       4       0       0       0       0       0       0       0       0       0       
      +0       0
  1782 ;;      Locals:         0       0       4       0       0       0       0       0       0       0       0       0       
      +0       0
  1783 ;;      Temps:          0       0       0       0       0       0       0       0       0       0       0       0       
      +0       0
  1784 ;;      Totals:         0       0       8       0       0       0       0       0       0       0       0       0       
      +0       0
  1785 ;;Total ram usage:        8 bytes
  1786 ;; Hardware stack levels used: 1
  1787 ;; Hardware stack levels required when called: 2
  1788 ;; This function calls:
  1789 ;;		___fldiv
  1790 ;;		___flmul
  1791 ;;		___fltol
  1792 ;;		___xxtofl
  1793 ;; This function is called by:
  1794 ;;		_pwm1_set_duty
  1795 ;; This function uses a non-reentrant model
  1796 ;;
  1797                           
  1798     0065                     _pwm_calculate_duty:	
  1799                           ;psect for function _pwm_calculate_duty
  1800                           
  1801     0065                     l1603:	
  1802                           ;incstack = 0
  1803                           ; Regs used in _pwm_calculate_duty: [wreg+status,2+status,0+pclath+cstack]
  1804                           
  1805                           
  1806                           ;./pwm.h: 18:     return (unsigned int) ((duty * 4 * (PR2 + 1)) / 1023);
  1807     0065  0021               	movlb	1	; select bank1
  1808     0066  0825               	movf	(pwm_calculate_duty@duty+3)^(0+128),w
  1809     0067  0020               	movlb	0	; select bank0
  1810     0068  00A7               	movwf	___flmul@a+3
  1811     0069  0021               	movlb	1	; select bank1
  1812     006A  0824               	movf	(pwm_calculate_duty@duty+2)^(0+128),w
  1813     006B  0020               	movlb	0	; select bank0
  1814     006C  00A6               	movwf	___flmul@a+2
  1815     006D  0021               	movlb	1	; select bank1
  1816     006E  0823               	movf	(pwm_calculate_duty@duty+1)^(0+128),w
  1817     006F  0020               	movlb	0	; select bank0
  1818     0070  00A5               	movwf	___flmul@a+1
  1819     0071  0021               	movlb	1	; select bank1
  1820     0072  0822               	movf	pwm_calculate_duty@duty^(0+128),w
  1821     0073  0020               	movlb	0	; select bank0
  1822     0074  00A4               	movwf	___flmul@a
  1823     0075  3040               	movlw	64
  1824     0076  00A3               	movwf	___flmul@b+3
  1825     0077  3080               	movlw	128
  1826     0078  00A2               	movwf	___flmul@b+2
  1827     0079  3000               	movlw	0
  1828     007A  00A1               	movwf	___flmul@b+1
  1829     007B  3000               	movlw	0
  1830     007C  00A0               	movwf	___flmul@b
  1831     007D  3185  25BF  3180   	fcall	___flmul
  1832     0080  0020               	movlb	0	; select bank0
  1833     0081  0823               	movf	?___flmul+3,w
  1834     0082  0021               	movlb	1	; select bank1
  1835     0083  00A9               	movwf	(_pwm_calculate_duty$685+3)^(0+128)
  1836     0084  0020               	movlb	0	; select bank0
  1837     0085  0822               	movf	?___flmul+2,w
  1838     0086  0021               	movlb	1	; select bank1
  1839     0087  00A8               	movwf	(_pwm_calculate_duty$685+2)^(0+128)
  1840     0088  0020               	movlb	0	; select bank0
  1841     0089  0821               	movf	?___flmul+1,w
  1842     008A  0021               	movlb	1	; select bank1
  1843     008B  00A7               	movwf	(_pwm_calculate_duty$685+1)^(0+128)
  1844     008C  0020               	movlb	0	; select bank0
  1845     008D  0820               	movf	?___flmul,w
  1846     008E  0021               	movlb	1	; select bank1
  1847     008F  00A6               	movwf	_pwm_calculate_duty$685^(0+128)
  1848                           
  1849                           ;./pwm.h: 18:     return (unsigned int) ((duty * 4 * (PR2 + 1)) / 1023);
  1850     0090  0829               	movf	(_pwm_calculate_duty$685+3)^(0+128),w
  1851     0091  0020               	movlb	0	; select bank0
  1852     0092  00A7               	movwf	___flmul@a+3
  1853     0093  0021               	movlb	1	; select bank1
  1854     0094  0828               	movf	(_pwm_calculate_duty$685+2)^(0+128),w
  1855     0095  0020               	movlb	0	; select bank0
  1856     0096  00A6               	movwf	___flmul@a+2
  1857     0097  0021               	movlb	1	; select bank1
  1858     0098  0827               	movf	(_pwm_calculate_duty$685+1)^(0+128),w
  1859     0099  0020               	movlb	0	; select bank0
  1860     009A  00A5               	movwf	___flmul@a+1
  1861     009B  0021               	movlb	1	; select bank1
  1862     009C  0826               	movf	_pwm_calculate_duty$685^(0+128),w
  1863     009D  0020               	movlb	0	; select bank0
  1864     009E  00A4               	movwf	___flmul@a
  1865     009F  081B               	movf	27,w	;volatile
  1866     00A0  3E01               	addlw	1
  1867     00A1  00F0               	movwf	___xxtofl@val
  1868     00A2  3000               	movlw	0
  1869     00A3  1803               	skipnc
  1870     00A4  3001               	movlw	1
  1871     00A5  00F1               	movwf	___xxtofl@val+1
  1872     00A6  01F2               	clrf	___xxtofl@val+2
  1873     00A7  1BF1               	btfsc	___xxtofl@val+1,7
  1874     00A8  03F2               	decf	___xxtofl@val+2,f
  1875     00A9  0872               	movf	___xxtofl@val+2,w
  1876     00AA  00F3               	movwf	___xxtofl@val+3
  1877     00AB  3001               	movlw	1
  1878     00AC  3181  2163  3180   	fcall	___xxtofl
  1879     00AF  0873               	movf	?___xxtofl+3,w
  1880     00B0  0020               	movlb	0	; select bank0
  1881     00B1  00A3               	movwf	___flmul@b+3
  1882     00B2  0872               	movf	?___xxtofl+2,w
  1883     00B3  00A2               	movwf	___flmul@b+2
  1884     00B4  0871               	movf	?___xxtofl+1,w
  1885     00B5  00A1               	movwf	___flmul@b+1
  1886     00B6  0870               	movf	?___xxtofl,w
  1887     00B7  00A0               	movwf	___flmul@b
  1888     00B8  3185  25BF  3180   	fcall	___flmul
  1889     00BB  0020               	movlb	0	; select bank0
  1890     00BC  0823               	movf	?___flmul+3,w
  1891     00BD  00C1               	movwf	___fldiv@b+3
  1892     00BE  0822               	movf	?___flmul+2,w
  1893     00BF  00C0               	movwf	___fldiv@b+2
  1894     00C0  0821               	movf	?___flmul+1,w
  1895     00C1  00BF               	movwf	___fldiv@b+1
  1896     00C2  0820               	movf	?___flmul,w
  1897     00C3  00BE               	movwf	___fldiv@b
  1898     00C4  3044               	movlw	68
  1899     00C5  00BD               	movwf	___fldiv@a+3
  1900     00C6  307F               	movlw	127
  1901     00C7  00BC               	movwf	___fldiv@a+2
  1902     00C8  30C0               	movlw	192
  1903     00C9  00BB               	movwf	___fldiv@a+1
  1904     00CA  3000               	movlw	0
  1905     00CB  00BA               	movwf	___fldiv@a
  1906     00CC  3182  220D  3180   	fcall	___fldiv
  1907     00CF  0020               	movlb	0	; select bank0
  1908     00D0  083D               	movf	?___fldiv+3,w
  1909     00D1  00EB               	movwf	___fltol@f1+3
  1910     00D2  083C               	movf	?___fldiv+2,w
  1911     00D3  00EA               	movwf	___fltol@f1+2
  1912     00D4  083B               	movf	?___fldiv+1,w
  1913     00D5  00E9               	movwf	___fltol@f1+1
  1914     00D6  083A               	movf	?___fldiv,w
  1915     00D7  00E8               	movwf	___fltol@f1
  1916     00D8  318F  2784  3180   	fcall	___fltol
  1917     00DB  0020               	movlb	0	; select bank0
  1918     00DC  0869               	movf	?___fltol+1,w
  1919     00DD  0021               	movlb	1	; select bank1
  1920     00DE  00A3               	movwf	(?_pwm_calculate_duty+1)^(0+128)
  1921     00DF  0020               	movlb	0	; select bank0
  1922     00E0  0868               	movf	?___fltol,w
  1923     00E1  0021               	movlb	1	; select bank1
  1924     00E2  00A2               	movwf	?_pwm_calculate_duty^(0+128)
  1925     00E3                     l48:
  1926     00E3  0008               	return
  1927     00E4                     __end_of_pwm_calculate_duty:
  1928                           
  1929                           	psect	text6
  1930     0163                     __ptext6:	
  1931 ;; *************** function ___xxtofl *****************
  1932 ;; Defined at:
  1933 ;;		line 10 in file "C:\Program Files\Microchip\xc8\v2.40\pic\sources\c99\common\xxtofl.c"
  1934 ;; Parameters:    Size  Location     Type
  1935 ;;  sign            1    wreg     unsigned char 
  1936 ;;  val             4    0[COMMON] long 
  1937 ;; Auto vars:     Size  Location     Type
  1938 ;;  sign            1    8[COMMON] unsigned char 
  1939 ;;  arg             4   10[COMMON] unsigned long 
  1940 ;;  exp             1    9[COMMON] unsigned char 
  1941 ;; Return value:  Size  Location     Type
  1942 ;;                  4    0[COMMON] unsigned char 
  1943 ;; Registers used:
  1944 ;;		wreg, status,2, status,0
  1945 ;; Tracked objects:
  1946 ;;		On entry : 0/0
  1947 ;;		On exit  : 0/0
  1948 ;;		Unchanged: 0/0
  1949 ;; Data sizes:     COMMON   BANK0   BANK1   BANK2   BANK3   BANK4   BANK5   BANK6   BANK7   BANK8   BANK9  BANK10  BANK1
      +1  BANK12
  1950 ;;      Params:         4       0       0       0       0       0       0       0       0       0       0       0       
      +0       0
  1951 ;;      Locals:         6       0       0       0       0       0       0       0       0       0       0       0       
      +0       0
  1952 ;;      Temps:          4       0       0       0       0       0       0       0       0       0       0       0       
      +0       0
  1953 ;;      Totals:        14       0       0       0       0       0       0       0       0       0       0       0       
      +0       0
  1954 ;;Total ram usage:       14 bytes
  1955 ;; Hardware stack levels used: 1
  1956 ;; This function calls:
  1957 ;;		Nothing
  1958 ;; This function is called by:
  1959 ;;		_pwm_calculate_duty
  1960 ;;		_pwm1_set_duty
  1961 ;; This function uses a non-reentrant model
  1962 ;;
  1963                           
  1964     0163                     ___xxtofl:	
  1965                           ;psect for function ___xxtofl
  1966                           
  1967                           
  1968                           ;incstack = 0
  1969                           ; Regs used in ___xxtofl: [wreg+status,2+status,0]
  1970                           ;___xxtofl@sign stored from wreg
  1971     0163  00F8               	movwf	___xxtofl@sign
  1972     0164                     l1559:
  1973     0164  0878               	movf	___xxtofl@sign,w
  1974     0165  1903               	btfsc	3,2
  1975     0166  2968               	goto	u1971
  1976     0167  2969               	goto	u1970
  1977     0168                     u1971:
  1978     0168  297D               	goto	l1565
  1979     0169                     u1970:
  1980     0169                     l1561:
  1981     0169  1FF3               	btfss	___xxtofl@val+3,7
  1982     016A  296C               	goto	u1981
  1983     016B  296D               	goto	u1980
  1984     016C                     u1981:
  1985     016C  297D               	goto	l1565
  1986     016D                     u1980:
  1987     016D                     l1563:
  1988     016D  0970               	comf	___xxtofl@val,w
  1989     016E  00FA               	movwf	___xxtofl@arg
  1990     016F  0971               	comf	___xxtofl@val+1,w
  1991     0170  00FB               	movwf	___xxtofl@arg+1
  1992     0171  0972               	comf	___xxtofl@val+2,w
  1993     0172  00FC               	movwf	___xxtofl@arg+2
  1994     0173  0973               	comf	___xxtofl@val+3,w
  1995     0174  00FD               	movwf	___xxtofl@arg+3
  1996     0175  0AFA               	incf	___xxtofl@arg,f
  1997     0176  1903               	skipnz
  1998     0177  0AFB               	incf	___xxtofl@arg+1,f
  1999     0178  1903               	skipnz
  2000     0179  0AFC               	incf	___xxtofl@arg+2,f
  2001     017A  1903               	skipnz
  2002     017B  0AFD               	incf	___xxtofl@arg+3,f
  2003     017C  2985               	goto	l574
  2004     017D                     l1565:
  2005     017D  0873               	movf	___xxtofl@val+3,w
  2006     017E  00FD               	movwf	___xxtofl@arg+3
  2007     017F  0872               	movf	___xxtofl@val+2,w
  2008     0180  00FC               	movwf	___xxtofl@arg+2
  2009     0181  0871               	movf	___xxtofl@val+1,w
  2010     0182  00FB               	movwf	___xxtofl@arg+1
  2011     0183  0870               	movf	___xxtofl@val,w
  2012     0184  00FA               	movwf	___xxtofl@arg
  2013     0185                     l574:
  2014     0185  0873               	movf	___xxtofl@val+3,w
  2015     0186  0472               	iorwf	___xxtofl@val+2,w
  2016     0187  0471               	iorwf	___xxtofl@val+1,w
  2017     0188  0470               	iorwf	___xxtofl@val,w
  2018     0189  1D03               	skipz
  2019     018A  298C               	goto	u1991
  2020     018B  298D               	goto	u1990
  2021     018C                     u1991:
  2022     018C  2996               	goto	l1571
  2023     018D                     u1990:
  2024     018D                     l1567:
  2025     018D  3000               	movlw	0
  2026     018E  00F3               	movwf	?___xxtofl+3
  2027     018F  3000               	movlw	0
  2028     0190  00F2               	movwf	?___xxtofl+2
  2029     0191  3000               	movlw	0
  2030     0192  00F1               	movwf	?___xxtofl+1
  2031     0193  3000               	movlw	0
  2032     0194  00F0               	movwf	?___xxtofl
  2033     0195  2A0C               	goto	l576
  2034     0196                     l1571:
  2035     0196  3096               	movlw	150
  2036     0197  00F9               	movwf	___xxtofl@exp
  2037     0198  29A4               	goto	l1575
  2038     0199                     l1573:
  2039     0199  3001               	movlw	1
  2040     019A  00F4               	movwf	??___xxtofl
  2041     019B  0874               	movf	??___xxtofl,w
  2042     019C  07F9               	addwf	___xxtofl@exp,f
  2043     019D  3001               	movlw	1
  2044     019E                     u2005:
  2045     019E  36FD               	lsrf	___xxtofl@arg+3,f
  2046     019F  0CFC               	rrf	___xxtofl@arg+2,f
  2047     01A0  0CFB               	rrf	___xxtofl@arg+1,f
  2048     01A1  0CFA               	rrf	___xxtofl@arg,f
  2049     01A2  0B89               	decfsz	9,f
  2050     01A3  299E               	goto	u2005
  2051     01A4                     l1575:
  2052     01A4  30FE               	movlw	254
  2053     01A5  057D               	andwf	___xxtofl@arg+3,w
  2054     01A6  1D03               	btfss	3,2
  2055     01A7  29A9               	goto	u2011
  2056     01A8  29AA               	goto	u2010
  2057     01A9                     u2011:
  2058     01A9  2999               	goto	l1573
  2059     01AA                     u2010:
  2060     01AA  29BE               	goto	l580
  2061     01AB                     l1577:
  2062     01AB  3001               	movlw	1
  2063     01AC  00F4               	movwf	??___xxtofl
  2064     01AD  0874               	movf	??___xxtofl,w
  2065     01AE  07F9               	addwf	___xxtofl@exp,f
  2066     01AF                     l1579:
  2067     01AF  3001               	movlw	1
  2068     01B0  07FA               	addwf	___xxtofl@arg,f
  2069     01B1  3000               	movlw	0
  2070     01B2  3DFB               	addwfc	___xxtofl@arg+1,f
  2071     01B3  3000               	movlw	0
  2072     01B4  3DFC               	addwfc	___xxtofl@arg+2,f
  2073     01B5  3000               	movlw	0
  2074     01B6  3DFD               	addwfc	___xxtofl@arg+3,f
  2075     01B7                     l1581:
  2076     01B7  3001               	movlw	1
  2077     01B8                     u2025:
  2078     01B8  36FD               	lsrf	___xxtofl@arg+3,f
  2079     01B9  0CFC               	rrf	___xxtofl@arg+2,f
  2080     01BA  0CFB               	rrf	___xxtofl@arg+1,f
  2081     01BB  0CFA               	rrf	___xxtofl@arg,f
  2082     01BC  0B89               	decfsz	9,f
  2083     01BD  29B8               	goto	u2025
  2084     01BE                     l580:
  2085     01BE  30FF               	movlw	255
  2086     01BF  057D               	andwf	___xxtofl@arg+3,w
  2087     01C0  1D03               	btfss	3,2
  2088     01C1  29C3               	goto	u2031
  2089     01C2  29C4               	goto	u2030
  2090     01C3                     u2031:
  2091     01C3  29AB               	goto	l1577
  2092     01C4                     u2030:
  2093     01C4  29CE               	goto	l1585
  2094     01C5                     l1583:
  2095     01C5  3001               	movlw	1
  2096     01C6  02F9               	subwf	___xxtofl@exp,f
  2097     01C7  3001               	movlw	1
  2098     01C8                     u2045:
  2099     01C8  35FA               	lslf	___xxtofl@arg,f
  2100     01C9  0DFB               	rlf	___xxtofl@arg+1,f
  2101     01CA  0DFC               	rlf	___xxtofl@arg+2,f
  2102     01CB  0DFD               	rlf	___xxtofl@arg+3,f
  2103     01CC  0B89               	decfsz	9,f
  2104     01CD  29C8               	goto	u2045
  2105     01CE                     l1585:
  2106     01CE  1BFC               	btfsc	___xxtofl@arg+2,7
  2107     01CF  29D1               	goto	u2051
  2108     01D0  29D2               	goto	u2050
  2109     01D1                     u2051:
  2110     01D1  29D8               	goto	l587
  2111     01D2                     u2050:
  2112     01D2                     l1587:
  2113     01D2  3002               	movlw	2
  2114     01D3  0279               	subwf	___xxtofl@exp,w
  2115     01D4  1803               	skipnc
  2116     01D5  29D7               	goto	u2061
  2117     01D6  29D8               	goto	u2060
  2118     01D7                     u2061:
  2119     01D7  29C5               	goto	l1583
  2120     01D8                     u2060:
  2121     01D8                     l587:
  2122     01D8  1879               	btfsc	___xxtofl@exp,0
  2123     01D9  29DB               	goto	u2071
  2124     01DA  29DC               	goto	u2070
  2125     01DB                     u2071:
  2126     01DB  29E4               	goto	l588
  2127     01DC                     u2070:
  2128     01DC                     l1589:
  2129     01DC  30FF               	movlw	255
  2130     01DD  05FA               	andwf	___xxtofl@arg,f
  2131     01DE  30FF               	movlw	255
  2132     01DF  05FB               	andwf	___xxtofl@arg+1,f
  2133     01E0  307F               	movlw	127
  2134     01E1  05FC               	andwf	___xxtofl@arg+2,f
  2135     01E2  30FF               	movlw	255
  2136     01E3  05FD               	andwf	___xxtofl@arg+3,f
  2137     01E4                     l588:
  2138     01E4  1003               	clrc
  2139     01E5  0CF9               	rrf	___xxtofl@exp,f
  2140     01E6                     l1591:
  2141     01E6  0879               	movf	___xxtofl@exp,w
  2142     01E7  00F4               	movwf	??___xxtofl
  2143     01E8  01F5               	clrf	??___xxtofl+1
  2144     01E9  01F6               	clrf	??___xxtofl+2
  2145     01EA  01F7               	clrf	??___xxtofl+3
  2146     01EB  3018               	movlw	24
  2147     01EC                     u2085:
  2148     01EC  35F4               	lslf	??___xxtofl,f
  2149     01ED  0DF5               	rlf	??___xxtofl+1,f
  2150     01EE  0DF6               	rlf	??___xxtofl+2,f
  2151     01EF  0DF7               	rlf	??___xxtofl+3,f
  2152     01F0                     u2080:
  2153     01F0  0B89               	decfsz	9,f
  2154     01F1  29EC               	goto	u2085
  2155     01F2  0874               	movf	??___xxtofl,w
  2156     01F3  04FA               	iorwf	___xxtofl@arg,f
  2157     01F4  0875               	movf	??___xxtofl+1,w
  2158     01F5  04FB               	iorwf	___xxtofl@arg+1,f
  2159     01F6  0876               	movf	??___xxtofl+2,w
  2160     01F7  04FC               	iorwf	___xxtofl@arg+2,f
  2161     01F8  0877               	movf	??___xxtofl+3,w
  2162     01F9  04FD               	iorwf	___xxtofl@arg+3,f
  2163     01FA                     l1593:
  2164     01FA  0878               	movf	___xxtofl@sign,w
  2165     01FB  1903               	btfsc	3,2
  2166     01FC  29FE               	goto	u2091
  2167     01FD  29FF               	goto	u2090
  2168     01FE                     u2091:
  2169     01FE  2A04               	goto	l1599
  2170     01FF                     u2090:
  2171     01FF                     l1595:
  2172     01FF  1FF3               	btfss	___xxtofl@val+3,7
  2173     0200  2A02               	goto	u2101
  2174     0201  2A03               	goto	u2100
  2175     0202                     u2101:
  2176     0202  2A04               	goto	l1599
  2177     0203                     u2100:
  2178     0203                     l1597:
  2179     0203  17FD               	bsf	___xxtofl@arg+3,7
  2180     0204                     l1599:
  2181     0204  087D               	movf	___xxtofl@arg+3,w
  2182     0205  00F3               	movwf	?___xxtofl+3
  2183     0206  087C               	movf	___xxtofl@arg+2,w
  2184     0207  00F2               	movwf	?___xxtofl+2
  2185     0208  087B               	movf	___xxtofl@arg+1,w
  2186     0209  00F1               	movwf	?___xxtofl+1
  2187     020A  087A               	movf	___xxtofl@arg,w
  2188     020B  00F0               	movwf	?___xxtofl
  2189     020C                     l576:
  2190     020C  0008               	return
  2191     020D                     __end_of___xxtofl:
  2192                           
  2193                           	psect	text7
  2194     0F84                     __ptext7:	
  2195 ;; *************** function ___fltol *****************
  2196 ;; Defined at:
  2197 ;;		line 43 in file "C:\Program Files\Microchip\xc8\v2.40\pic\sources\c99\common\fltol.c"
  2198 ;; Parameters:    Size  Location     Type
  2199 ;;  f1              4   72[BANK0 ] unsigned char 
  2200 ;; Auto vars:     Size  Location     Type
  2201 ;;  exp1            1    1[BANK1 ] unsigned char 
  2202 ;;  sign1           1    0[BANK1 ] unsigned char 
  2203 ;; Return value:  Size  Location     Type
  2204 ;;                  4   72[BANK0 ] long 
  2205 ;; Registers used:
  2206 ;;		wreg, status,2, status,0
  2207 ;; Tracked objects:
  2208 ;;		On entry : 0/0
  2209 ;;		On exit  : 0/0
  2210 ;;		Unchanged: 0/0
  2211 ;; Data sizes:     COMMON   BANK0   BANK1   BANK2   BANK3   BANK4   BANK5   BANK6   BANK7   BANK8   BANK9  BANK10  BANK1
      +1  BANK12
  2212 ;;      Params:         0       4       0       0       0       0       0       0       0       0       0       0       
      +0       0
  2213 ;;      Locals:         0       0       2       0       0       0       0       0       0       0       0       0       
      +0       0
  2214 ;;      Temps:          0       4       0       0       0       0       0       0       0       0       0       0       
      +0       0
  2215 ;;      Totals:         0       8       2       0       0       0       0       0       0       0       0       0       
      +0       0
  2216 ;;Total ram usage:       10 bytes
  2217 ;; Hardware stack levels used: 1
  2218 ;; This function calls:
  2219 ;;		Nothing
  2220 ;; This function is called by:
  2221 ;;		_pwm_set_freq
  2222 ;;		_pwm_calculate_duty
  2223 ;; This function uses a non-reentrant model
  2224 ;;
  2225                           
  2226     0F84                     ___fltol:	
  2227                           ;psect for function ___fltol
  2228                           
  2229     0F84                     l1243:	
  2230                           ;incstack = 0
  2231                           ; Regs used in ___fltol: [wreg+status,2+status,0]
  2232                           
  2233     0F84  1003               	clrc
  2234     0F85  0020               	movlb	0	; select bank0
  2235     0F86  0D6A               	rlf	___fltol@f1+2,w
  2236     0F87  0D6B               	rlf	___fltol@f1+3,w
  2237     0F88  0021               	movlb	1	; select bank1
  2238     0F89  00A1               	movwf	___fltol@exp1^(0+128)
  2239     0F8A  0821               	movf	___fltol@exp1^(0+128),w
  2240     0F8B  1D03               	btfss	3,2
  2241     0F8C  2F8E               	goto	u1321
  2242     0F8D  2F8F               	goto	u1320
  2243     0F8E                     u1321:
  2244     0F8E  2F99               	goto	l1249
  2245     0F8F                     u1320:
  2246     0F8F                     l1245:
  2247     0F8F  3000               	movlw	0
  2248     0F90  0020               	movlb	0	; select bank0
  2249     0F91  00EB               	movwf	?___fltol+3
  2250     0F92  3000               	movlw	0
  2251     0F93  00EA               	movwf	?___fltol+2
  2252     0F94  3000               	movlw	0
  2253     0F95  00E9               	movwf	?___fltol+1
  2254     0F96  3000               	movlw	0
  2255     0F97  00E8               	movwf	?___fltol
  2256     0F98  2FFF               	goto	l327
  2257     0F99                     l1249:
  2258     0F99  0020               	movlb	0	; select bank0
  2259     0F9A  0868               	movf	___fltol@f1,w
  2260     0F9B  00EC               	movwf	??___fltol
  2261     0F9C  0869               	movf	___fltol@f1+1,w
  2262     0F9D  00ED               	movwf	??___fltol+1
  2263     0F9E  086A               	movf	___fltol@f1+2,w
  2264     0F9F  00EE               	movwf	??___fltol+2
  2265     0FA0  086B               	movf	___fltol@f1+3,w
  2266     0FA1  00EF               	movwf	??___fltol+3
  2267     0FA2  301F               	movlw	31
  2268     0FA3                     u1335:
  2269     0FA3  36EF               	lsrf	??___fltol+3,f
  2270     0FA4  0CEE               	rrf	??___fltol+2,f
  2271     0FA5  0CED               	rrf	??___fltol+1,f
  2272     0FA6  0CEC               	rrf	??___fltol,f
  2273     0FA7                     u1330:
  2274     0FA7  0B89               	decfsz	9,f
  2275     0FA8  2FA3               	goto	u1335
  2276     0FA9  086C               	movf	??___fltol,w
  2277     0FAA  0021               	movlb	1	; select bank1
  2278     0FAB  00A0               	movwf	___fltol@sign1^(0+128)
  2279     0FAC                     l1251:
  2280     0FAC  0020               	movlb	0	; select bank0
  2281     0FAD  17EA               	bsf	___fltol@f1+2,7
  2282     0FAE                     l1253:
  2283     0FAE  30FF               	movlw	255
  2284     0FAF  05E8               	andwf	___fltol@f1,f
  2285     0FB0  30FF               	movlw	255
  2286     0FB1  05E9               	andwf	___fltol@f1+1,f
  2287     0FB2  30FF               	movlw	255
  2288     0FB3  05EA               	andwf	___fltol@f1+2,f
  2289     0FB4  3000               	movlw	0
  2290     0FB5  05EB               	andwf	___fltol@f1+3,f
  2291     0FB6                     l1255:
  2292     0FB6  3096               	movlw	150
  2293     0FB7  0021               	movlb	1	; select bank1
  2294     0FB8  02A1               	subwf	___fltol@exp1^(0+128),f
  2295     0FB9                     l1257:
  2296     0FB9  1FA1               	btfss	___fltol@exp1^(0+128),7
  2297     0FBA  2FBC               	goto	u1341
  2298     0FBB  2FBD               	goto	u1340
  2299     0FBC                     u1341:
  2300     0FBC  2FD7               	goto	l1267
  2301     0FBD                     u1340:
  2302     0FBD                     l1259:
  2303     0FBD  0821               	movf	___fltol@exp1^(0+128),w
  2304     0FBE  3A80               	xorlw	128
  2305     0FBF  3E97               	addlw	151
  2306     0FC0  1803               	skipnc
  2307     0FC1  2FC3               	goto	u1351
  2308     0FC2  2FC4               	goto	u1350
  2309     0FC3                     u1351:
  2310     0FC3  2FC5               	goto	l1265
  2311     0FC4                     u1350:
  2312     0FC4  2F8F               	goto	l1245
  2313     0FC5                     l1265:
  2314     0FC5  3001               	movlw	1
  2315     0FC6                     u1365:
  2316     0FC6  0020               	movlb	0	; select bank0
  2317     0FC7  36EB               	lsrf	___fltol@f1+3,f
  2318     0FC8  0CEA               	rrf	___fltol@f1+2,f
  2319     0FC9  0CE9               	rrf	___fltol@f1+1,f
  2320     0FCA  0CE8               	rrf	___fltol@f1,f
  2321     0FCB  0B89               	decfsz	9,f
  2322     0FCC  2FC6               	goto	u1365
  2323     0FCD  3001               	movlw	1
  2324     0FCE  00EC               	movwf	??___fltol
  2325     0FCF  086C               	movf	??___fltol,w
  2326     0FD0  0021               	movlb	1	; select bank1
  2327     0FD1  07A1               	addwf	___fltol@exp1^(0+128),f
  2328     0FD2  1D03               	btfss	3,2
  2329     0FD3  2FD5               	goto	u1371
  2330     0FD4  2FD6               	goto	u1370
  2331     0FD5                     u1371:
  2332     0FD5  2FC5               	goto	l1265
  2333     0FD6                     u1370:
  2334     0FD6  2FEE               	goto	l1275
  2335     0FD7                     l1267:
  2336     0FD7  3020               	movlw	32
  2337     0FD8  0221               	subwf	___fltol@exp1^(0+128),w
  2338     0FD9  1C03               	skipc
  2339     0FDA  2FDC               	goto	u1381
  2340     0FDB  2FDD               	goto	u1380
  2341     0FDC                     u1381:
  2342     0FDC  2FE9               	goto	l334
  2343     0FDD                     u1380:
  2344     0FDD  2F8F               	goto	l1245
  2345     0FDE                     l1273:
  2346     0FDE  3001               	movlw	1
  2347     0FDF                     u1395:
  2348     0FDF  0020               	movlb	0	; select bank0
  2349     0FE0  35E8               	lslf	___fltol@f1,f
  2350     0FE1  0DE9               	rlf	___fltol@f1+1,f
  2351     0FE2  0DEA               	rlf	___fltol@f1+2,f
  2352     0FE3  0DEB               	rlf	___fltol@f1+3,f
  2353     0FE4  0B89               	decfsz	9,f
  2354     0FE5  2FDF               	goto	u1395
  2355     0FE6  3001               	movlw	1
  2356     0FE7  0021               	movlb	1	; select bank1
  2357     0FE8  02A1               	subwf	___fltol@exp1^(0+128),f
  2358     0FE9                     l334:
  2359     0FE9  0821               	movf	___fltol@exp1^(0+128),w
  2360     0FEA  1D03               	btfss	3,2
  2361     0FEB  2FED               	goto	u1401
  2362     0FEC  2FEE               	goto	u1400
  2363     0FED                     u1401:
  2364     0FED  2FDE               	goto	l1273
  2365     0FEE                     u1400:
  2366     0FEE                     l1275:
  2367     0FEE  0820               	movf	___fltol@sign1^(0+128),w
  2368     0FEF  1903               	btfsc	3,2
  2369     0FF0  2FF2               	goto	u1411
  2370     0FF1  2FF3               	goto	u1410
  2371     0FF2                     u1411:
  2372     0FF2  2FFF               	goto	l337
  2373     0FF3                     u1410:
  2374     0FF3                     l1277:
  2375     0FF3  0020               	movlb	0	; select bank0
  2376     0FF4  09E8               	comf	___fltol@f1,f
  2377     0FF5  09E9               	comf	___fltol@f1+1,f
  2378     0FF6  09EA               	comf	___fltol@f1+2,f
  2379     0FF7  09EB               	comf	___fltol@f1+3,f
  2380     0FF8  0AE8               	incf	___fltol@f1,f
  2381     0FF9  1903               	skipnz
  2382     0FFA  0AE9               	incf	___fltol@f1+1,f
  2383     0FFB  1903               	skipnz
  2384     0FFC  0AEA               	incf	___fltol@f1+2,f
  2385     0FFD  1903               	skipnz
  2386     0FFE  0AEB               	incf	___fltol@f1+3,f
  2387     0FFF                     l337:
  2388     0FFF                     l327:
  2389     0FFF  0008               	return
  2390     1000                     __end_of___fltol:
  2391                           
  2392                           	psect	text8
  2393     05BF                     __ptext8:	
  2394 ;; *************** function ___flmul *****************
  2395 ;; Defined at:
  2396 ;;		line 8 in file "C:\Program Files\Microchip\xc8\v2.40\pic\sources\c99\common\sprcmul.c"
  2397 ;; Parameters:    Size  Location     Type
  2398 ;;  b               4    0[BANK0 ] long 
  2399 ;;  a               4    4[BANK0 ] long 
  2400 ;; Auto vars:     Size  Location     Type
  2401 ;;  prod            4   20[BANK0 ] struct .
  2402 ;;  grs             4   14[BANK0 ] unsigned long 
  2403 ;;  temp            2   24[BANK0 ] struct .
  2404 ;;  bexp            1   19[BANK0 ] unsigned char 
  2405 ;;  aexp            1   18[BANK0 ] unsigned char 
  2406 ;;  sign            1   13[BANK0 ] unsigned char 
  2407 ;; Return value:  Size  Location     Type
  2408 ;;                  4    0[BANK0 ] unsigned char 
  2409 ;; Registers used:
  2410 ;;		wreg, status,2, status,0, pclath, cstack
  2411 ;; Tracked objects:
  2412 ;;		On entry : 0/0
  2413 ;;		On exit  : 0/0
  2414 ;;		Unchanged: 0/0
  2415 ;; Data sizes:     COMMON   BANK0   BANK1   BANK2   BANK3   BANK4   BANK5   BANK6   BANK7   BANK8   BANK9  BANK10  BANK1
      +1  BANK12
  2416 ;;      Params:         0       8       0       0       0       0       0       0       0       0       0       0       
      +0       0
  2417 ;;      Locals:         0      13       0       0       0       0       0       0       0       0       0       0       
      +0       0
  2418 ;;      Temps:          0       5       0       0       0       0       0       0       0       0       0       0       
      +0       0
  2419 ;;      Totals:         0      26       0       0       0       0       0       0       0       0       0       0       
      +0       0
  2420 ;;Total ram usage:       26 bytes
  2421 ;; Hardware stack levels used: 1
  2422 ;; Hardware stack levels required when called: 1
  2423 ;; This function calls:
  2424 ;;		__Umul8_16
  2425 ;; This function is called by:
  2426 ;;		_pwm_set_freq
  2427 ;;		_pwm_calculate_duty
  2428 ;; This function uses a non-reentrant model
  2429 ;;
  2430                           
  2431     05BF                     ___flmul:	
  2432                           ;psect for function ___flmul
  2433                           
  2434     05BF                     l1419:	
  2435                           ;incstack = 0
  2436                           ; Regs used in ___flmul: [wreg+status,2+status,0+pclath+cstack]
  2437                           
  2438     05BF  0020               	movlb	0	; select bank0
  2439     05C0  0823               	movf	___flmul@b+3,w
  2440     05C1  3980               	andlw	128
  2441     05C2  00AD               	movwf	___flmul@sign
  2442     05C3                     l1421:
  2443     05C3  3523               	lslf	___flmul@b+3,w
  2444     05C4  00B3               	movwf	___flmul@bexp
  2445     05C5                     l1423:
  2446     05C5  1FA2               	btfss	___flmul@b+2,7
  2447     05C6  2DC8               	goto	u1711
  2448     05C7  2DC9               	goto	u1710
  2449     05C8                     u1711:
  2450     05C8  2DCA               	goto	l1427
  2451     05C9                     u1710:
  2452     05C9                     l1425:
  2453     05C9  1433               	bsf	___flmul@bexp,0
  2454     05CA                     l1427:
  2455     05CA  0833               	movf	___flmul@bexp,w
  2456     05CB  1903               	btfsc	3,2
  2457     05CC  2DCE               	goto	u1721
  2458     05CD  2DCF               	goto	u1720
  2459     05CE                     u1721:
  2460     05CE  2DDE               	goto	l1435
  2461     05CF                     u1720:
  2462     05CF                     l1429:
  2463     05CF  0A33               	incf	___flmul@bexp,w
  2464     05D0  1D03               	btfss	3,2
  2465     05D1  2DD3               	goto	u1731
  2466     05D2  2DD4               	goto	u1730
  2467     05D3                     u1731:
  2468     05D3  2DDC               	goto	l1433
  2469     05D4                     u1730:
  2470     05D4                     l1431:
  2471     05D4  3000               	movlw	0
  2472     05D5  00A3               	movwf	___flmul@b+3
  2473     05D6  3000               	movlw	0
  2474     05D7  00A2               	movwf	___flmul@b+2
  2475     05D8  3000               	movlw	0
  2476     05D9  00A1               	movwf	___flmul@b+1
  2477     05DA  3000               	movlw	0
  2478     05DB  00A0               	movwf	___flmul@b
  2479     05DC                     l1433:
  2480     05DC  17A2               	bsf	___flmul@b+2,7
  2481     05DD  2DE6               	goto	l1437
  2482     05DE                     l1435:
  2483     05DE  3000               	movlw	0
  2484     05DF  00A3               	movwf	___flmul@b+3
  2485     05E0  3000               	movlw	0
  2486     05E1  00A2               	movwf	___flmul@b+2
  2487     05E2  3000               	movlw	0
  2488     05E3  00A1               	movwf	___flmul@b+1
  2489     05E4  3000               	movlw	0
  2490     05E5  00A0               	movwf	___flmul@b
  2491     05E6                     l1437:
  2492     05E6  0827               	movf	___flmul@a+3,w
  2493     05E7  3980               	andlw	128
  2494     05E8  00A8               	movwf	??___flmul
  2495     05E9  0828               	movf	??___flmul,w
  2496     05EA  06AD               	xorwf	___flmul@sign,f
  2497     05EB                     l1439:
  2498     05EB  3527               	lslf	___flmul@a+3,w
  2499     05EC  00B2               	movwf	___flmul@aexp
  2500     05ED                     l1441:
  2501     05ED  1FA6               	btfss	___flmul@a+2,7
  2502     05EE  2DF0               	goto	u1741
  2503     05EF  2DF1               	goto	u1740
  2504     05F0                     u1741:
  2505     05F0  2DF2               	goto	l1445
  2506     05F1                     u1740:
  2507     05F1                     l1443:
  2508     05F1  1432               	bsf	___flmul@aexp,0
  2509     05F2                     l1445:
  2510     05F2  0832               	movf	___flmul@aexp,w
  2511     05F3  1903               	btfsc	3,2
  2512     05F4  2DF6               	goto	u1751
  2513     05F5  2DF7               	goto	u1750
  2514     05F6                     u1751:
  2515     05F6  2E06               	goto	l1453
  2516     05F7                     u1750:
  2517     05F7                     l1447:
  2518     05F7  0A32               	incf	___flmul@aexp,w
  2519     05F8  1D03               	btfss	3,2
  2520     05F9  2DFB               	goto	u1761
  2521     05FA  2DFC               	goto	u1760
  2522     05FB                     u1761:
  2523     05FB  2E04               	goto	l1451
  2524     05FC                     u1760:
  2525     05FC                     l1449:
  2526     05FC  3000               	movlw	0
  2527     05FD  00A7               	movwf	___flmul@a+3
  2528     05FE  3000               	movlw	0
  2529     05FF  00A6               	movwf	___flmul@a+2
  2530     0600  3000               	movlw	0
  2531     0601  00A5               	movwf	___flmul@a+1
  2532     0602  3000               	movlw	0
  2533     0603  00A4               	movwf	___flmul@a
  2534     0604                     l1451:
  2535     0604  17A6               	bsf	___flmul@a+2,7
  2536     0605  2E0E               	goto	l1455
  2537     0606                     l1453:
  2538     0606  3000               	movlw	0
  2539     0607  00A7               	movwf	___flmul@a+3
  2540     0608  3000               	movlw	0
  2541     0609  00A6               	movwf	___flmul@a+2
  2542     060A  3000               	movlw	0
  2543     060B  00A5               	movwf	___flmul@a+1
  2544     060C  3000               	movlw	0
  2545     060D  00A4               	movwf	___flmul@a
  2546     060E                     l1455:
  2547     060E  0832               	movf	___flmul@aexp,w
  2548     060F  1903               	btfsc	3,2
  2549     0610  2E12               	goto	u1771
  2550     0611  2E13               	goto	u1770
  2551     0612                     u1771:
  2552     0612  2E18               	goto	l1459
  2553     0613                     u1770:
  2554     0613                     l1457:
  2555     0613  0833               	movf	___flmul@bexp,w
  2556     0614  1D03               	btfss	3,2
  2557     0615  2E17               	goto	u1781
  2558     0616  2E18               	goto	u1780
  2559     0617                     u1781:
  2560     0617  2E21               	goto	l1463
  2561     0618                     u1780:
  2562     0618                     l1459:
  2563     0618  3000               	movlw	0
  2564     0619  00A3               	movwf	?___flmul+3
  2565     061A  3000               	movlw	0
  2566     061B  00A2               	movwf	?___flmul+2
  2567     061C  3000               	movlw	0
  2568     061D  00A1               	movwf	?___flmul+1
  2569     061E  3000               	movlw	0
  2570     061F  00A0               	movwf	?___flmul
  2571     0620  2FF9               	goto	l530
  2572     0621                     l1463:
  2573     0621  0820               	movf	___flmul@b,w
  2574     0622  00F0               	movwf	__Umul8_16@multiplicand
  2575     0623  0826               	movf	___flmul@a+2,w
  2576     0624  318F  2712  3185   	fcall	__Umul8_16
  2577     0627  0871               	movf	?__Umul8_16+1,w
  2578     0628  0020               	movlb	0	; select bank0
  2579     0629  00B9               	movwf	___flmul@temp+1
  2580     062A  0870               	movf	?__Umul8_16,w
  2581     062B  00B8               	movwf	___flmul@temp
  2582     062C                     l1465:
  2583     062C  0838               	movf	___flmul@temp,w
  2584     062D  00A8               	movwf	??___flmul
  2585     062E  01A9               	clrf	??___flmul+1
  2586     062F  01AA               	clrf	??___flmul+2
  2587     0630  01AB               	clrf	??___flmul+3
  2588     0631  082B               	movf	??___flmul+3,w
  2589     0632  00B1               	movwf	___flmul@grs+3
  2590     0633  082A               	movf	??___flmul+2,w
  2591     0634  00B0               	movwf	___flmul@grs+2
  2592     0635  0829               	movf	??___flmul+1,w
  2593     0636  00AF               	movwf	___flmul@grs+1
  2594     0637  0828               	movf	??___flmul,w
  2595     0638  00AE               	movwf	___flmul@grs
  2596     0639                     l1467:
  2597     0639  0839               	movf	___flmul@temp+1,w
  2598     063A  00A8               	movwf	??___flmul
  2599     063B  01A9               	clrf	??___flmul+1
  2600     063C  01AA               	clrf	??___flmul+2
  2601     063D  01AB               	clrf	??___flmul+3
  2602     063E  082B               	movf	??___flmul+3,w
  2603     063F  00B7               	movwf	___flmul@prod+3
  2604     0640  082A               	movf	??___flmul+2,w
  2605     0641  00B6               	movwf	___flmul@prod+2
  2606     0642  0829               	movf	??___flmul+1,w
  2607     0643  00B5               	movwf	___flmul@prod+1
  2608     0644  0828               	movf	??___flmul,w
  2609     0645  00B4               	movwf	___flmul@prod
  2610     0646  0821               	movf	___flmul@b+1,w
  2611     0647  00F0               	movwf	__Umul8_16@multiplicand
  2612     0648  0825               	movf	___flmul@a+1,w
  2613     0649  318F  2712  3185   	fcall	__Umul8_16
  2614     064C  0871               	movf	?__Umul8_16+1,w
  2615     064D  0020               	movlb	0	; select bank0
  2616     064E  00B9               	movwf	___flmul@temp+1
  2617     064F  0870               	movf	?__Umul8_16,w
  2618     0650  00B8               	movwf	___flmul@temp
  2619     0651                     l1469:
  2620     0651  0838               	movf	___flmul@temp,w
  2621     0652  00A8               	movwf	??___flmul
  2622     0653  01A9               	clrf	??___flmul+1
  2623     0654  01AA               	clrf	??___flmul+2
  2624     0655  01AB               	clrf	??___flmul+3
  2625     0656  0828               	movf	??___flmul,w
  2626     0657  07AE               	addwf	___flmul@grs,f
  2627     0658  0829               	movf	??___flmul+1,w
  2628     0659  3DAF               	addwfc	___flmul@grs+1,f
  2629     065A  082A               	movf	??___flmul+2,w
  2630     065B  3DB0               	addwfc	___flmul@grs+2,f
  2631     065C  082B               	movf	??___flmul+3,w
  2632     065D  3DB1               	addwfc	___flmul@grs+3,f
  2633     065E                     l1471:
  2634     065E  0839               	movf	___flmul@temp+1,w
  2635     065F  00A8               	movwf	??___flmul
  2636     0660  01A9               	clrf	??___flmul+1
  2637     0661  01AA               	clrf	??___flmul+2
  2638     0662  01AB               	clrf	??___flmul+3
  2639     0663  0828               	movf	??___flmul,w
  2640     0664  07B4               	addwf	___flmul@prod,f
  2641     0665  0829               	movf	??___flmul+1,w
  2642     0666  3DB5               	addwfc	___flmul@prod+1,f
  2643     0667  082A               	movf	??___flmul+2,w
  2644     0668  3DB6               	addwfc	___flmul@prod+2,f
  2645     0669  082B               	movf	??___flmul+3,w
  2646     066A  3DB7               	addwfc	___flmul@prod+3,f
  2647     066B  0822               	movf	___flmul@b+2,w
  2648     066C  00F0               	movwf	__Umul8_16@multiplicand
  2649     066D  0824               	movf	___flmul@a,w
  2650     066E  318F  2712  3185   	fcall	__Umul8_16
  2651     0671  0871               	movf	?__Umul8_16+1,w
  2652     0672  0020               	movlb	0	; select bank0
  2653     0673  00B9               	movwf	___flmul@temp+1
  2654     0674  0870               	movf	?__Umul8_16,w
  2655     0675  00B8               	movwf	___flmul@temp
  2656     0676                     l1473:
  2657     0676  0838               	movf	___flmul@temp,w
  2658     0677  00A8               	movwf	??___flmul
  2659     0678  01A9               	clrf	??___flmul+1
  2660     0679  01AA               	clrf	??___flmul+2
  2661     067A  01AB               	clrf	??___flmul+3
  2662     067B  0828               	movf	??___flmul,w
  2663     067C  07AE               	addwf	___flmul@grs,f
  2664     067D  0829               	movf	??___flmul+1,w
  2665     067E  3DAF               	addwfc	___flmul@grs+1,f
  2666     067F  082A               	movf	??___flmul+2,w
  2667     0680  3DB0               	addwfc	___flmul@grs+2,f
  2668     0681  082B               	movf	??___flmul+3,w
  2669     0682  3DB1               	addwfc	___flmul@grs+3,f
  2670     0683                     l1475:
  2671     0683  0839               	movf	___flmul@temp+1,w
  2672     0684  00A8               	movwf	??___flmul
  2673     0685  01A9               	clrf	??___flmul+1
  2674     0686  01AA               	clrf	??___flmul+2
  2675     0687  01AB               	clrf	??___flmul+3
  2676     0688  0828               	movf	??___flmul,w
  2677     0689  07B4               	addwf	___flmul@prod,f
  2678     068A  0829               	movf	??___flmul+1,w
  2679     068B  3DB5               	addwfc	___flmul@prod+1,f
  2680     068C  082A               	movf	??___flmul+2,w
  2681     068D  3DB6               	addwfc	___flmul@prod+2,f
  2682     068E  082B               	movf	??___flmul+3,w
  2683     068F  3DB7               	addwfc	___flmul@prod+3,f
  2684     0690                     l1477:
  2685     0690  3008               	movlw	8
  2686     0691                     u1795:
  2687     0691  35AE               	lslf	___flmul@grs,f
  2688     0692  0DAF               	rlf	___flmul@grs+1,f
  2689     0693  0DB0               	rlf	___flmul@grs+2,f
  2690     0694  0DB1               	rlf	___flmul@grs+3,f
  2691     0695  0B89               	decfsz	9,f
  2692     0696  2E91               	goto	u1795
  2693     0697                     l1479:
  2694     0697  0821               	movf	___flmul@b+1,w
  2695     0698  00F0               	movwf	__Umul8_16@multiplicand
  2696     0699  0824               	movf	___flmul@a,w
  2697     069A  318F  2712  3185   	fcall	__Umul8_16
  2698     069D  0871               	movf	?__Umul8_16+1,w
  2699     069E  0020               	movlb	0	; select bank0
  2700     069F  00B9               	movwf	___flmul@temp+1
  2701     06A0  0870               	movf	?__Umul8_16,w
  2702     06A1  00B8               	movwf	___flmul@temp
  2703     06A2                     l1481:
  2704     06A2  0838               	movf	___flmul@temp,w
  2705     06A3  07AE               	addwf	___flmul@grs,f
  2706     06A4  0839               	movf	___flmul@temp+1,w
  2707     06A5  3DAF               	addwfc	___flmul@grs+1,f
  2708     06A6  3000               	movlw	0
  2709     06A7  3DB0               	addwfc	___flmul@grs+2,f
  2710     06A8  3DB1               	addwfc	___flmul@grs+3,f
  2711     06A9                     l1483:
  2712     06A9  0820               	movf	___flmul@b,w
  2713     06AA  00F0               	movwf	__Umul8_16@multiplicand
  2714     06AB  0825               	movf	___flmul@a+1,w
  2715     06AC  318F  2712  3185   	fcall	__Umul8_16
  2716     06AF  0871               	movf	?__Umul8_16+1,w
  2717     06B0  0020               	movlb	0	; select bank0
  2718     06B1  00B9               	movwf	___flmul@temp+1
  2719     06B2  0870               	movf	?__Umul8_16,w
  2720     06B3  00B8               	movwf	___flmul@temp
  2721     06B4                     l1485:
  2722     06B4  0838               	movf	___flmul@temp,w
  2723     06B5  07AE               	addwf	___flmul@grs,f
  2724     06B6  0839               	movf	___flmul@temp+1,w
  2725     06B7  3DAF               	addwfc	___flmul@grs+1,f
  2726     06B8  3000               	movlw	0
  2727     06B9  3DB0               	addwfc	___flmul@grs+2,f
  2728     06BA  3DB1               	addwfc	___flmul@grs+3,f
  2729     06BB                     l1487:
  2730     06BB  3008               	movlw	8
  2731     06BC                     u1805:
  2732     06BC  35AE               	lslf	___flmul@grs,f
  2733     06BD  0DAF               	rlf	___flmul@grs+1,f
  2734     06BE  0DB0               	rlf	___flmul@grs+2,f
  2735     06BF  0DB1               	rlf	___flmul@grs+3,f
  2736     06C0  0B89               	decfsz	9,f
  2737     06C1  2EBC               	goto	u1805
  2738     06C2  0820               	movf	___flmul@b,w
  2739     06C3  00F0               	movwf	__Umul8_16@multiplicand
  2740     06C4  0824               	movf	___flmul@a,w
  2741     06C5  318F  2712  3185   	fcall	__Umul8_16
  2742     06C8  0871               	movf	?__Umul8_16+1,w
  2743     06C9  0020               	movlb	0	; select bank0
  2744     06CA  00B9               	movwf	___flmul@temp+1
  2745     06CB  0870               	movf	?__Umul8_16,w
  2746     06CC  00B8               	movwf	___flmul@temp
  2747     06CD                     l1489:
  2748     06CD  0838               	movf	___flmul@temp,w
  2749     06CE  07AE               	addwf	___flmul@grs,f
  2750     06CF  0839               	movf	___flmul@temp+1,w
  2751     06D0  3DAF               	addwfc	___flmul@grs+1,f
  2752     06D1  3000               	movlw	0
  2753     06D2  3DB0               	addwfc	___flmul@grs+2,f
  2754     06D3  3DB1               	addwfc	___flmul@grs+3,f
  2755     06D4                     l1491:
  2756     06D4  0821               	movf	___flmul@b+1,w
  2757     06D5  00F0               	movwf	__Umul8_16@multiplicand
  2758     06D6  0826               	movf	___flmul@a+2,w
  2759     06D7  318F  2712  3185   	fcall	__Umul8_16
  2760     06DA  0871               	movf	?__Umul8_16+1,w
  2761     06DB  0020               	movlb	0	; select bank0
  2762     06DC  00B9               	movwf	___flmul@temp+1
  2763     06DD  0870               	movf	?__Umul8_16,w
  2764     06DE  00B8               	movwf	___flmul@temp
  2765     06DF  0838               	movf	___flmul@temp,w
  2766     06E0  07B4               	addwf	___flmul@prod,f
  2767     06E1  0839               	movf	___flmul@temp+1,w
  2768     06E2  3DB5               	addwfc	___flmul@prod+1,f
  2769     06E3  3000               	movlw	0
  2770     06E4  3DB6               	addwfc	___flmul@prod+2,f
  2771     06E5  3DB7               	addwfc	___flmul@prod+3,f
  2772     06E6                     l1493:
  2773     06E6  0822               	movf	___flmul@b+2,w
  2774     06E7  00F0               	movwf	__Umul8_16@multiplicand
  2775     06E8  0825               	movf	___flmul@a+1,w
  2776     06E9  318F  2712  3185   	fcall	__Umul8_16
  2777     06EC  0871               	movf	?__Umul8_16+1,w
  2778     06ED  0020               	movlb	0	; select bank0
  2779     06EE  00B9               	movwf	___flmul@temp+1
  2780     06EF  0870               	movf	?__Umul8_16,w
  2781     06F0  00B8               	movwf	___flmul@temp
  2782     06F1                     l1495:
  2783     06F1  0838               	movf	___flmul@temp,w
  2784     06F2  07B4               	addwf	___flmul@prod,f
  2785     06F3  0839               	movf	___flmul@temp+1,w
  2786     06F4  3DB5               	addwfc	___flmul@prod+1,f
  2787     06F5  3000               	movlw	0
  2788     06F6  3DB6               	addwfc	___flmul@prod+2,f
  2789     06F7  3DB7               	addwfc	___flmul@prod+3,f
  2790     06F8  0822               	movf	___flmul@b+2,w
  2791     06F9  00F0               	movwf	__Umul8_16@multiplicand
  2792     06FA  0826               	movf	___flmul@a+2,w
  2793     06FB  318F  2712  3185   	fcall	__Umul8_16
  2794     06FE  0871               	movf	?__Umul8_16+1,w
  2795     06FF  0020               	movlb	0	; select bank0
  2796     0700  00B9               	movwf	___flmul@temp+1
  2797     0701  0870               	movf	?__Umul8_16,w
  2798     0702  00B8               	movwf	___flmul@temp
  2799     0703                     l1497:
  2800     0703  0838               	movf	___flmul@temp,w
  2801     0704  00A8               	movwf	??___flmul
  2802     0705  0839               	movf	___flmul@temp+1,w
  2803     0706  00A9               	movwf	??___flmul+1
  2804     0707  01AA               	clrf	??___flmul+2
  2805     0708  01AB               	clrf	??___flmul+3
  2806     0709  3008               	movlw	8
  2807     070A                     u1815:
  2808     070A  35A8               	lslf	??___flmul,f
  2809     070B  0DA9               	rlf	??___flmul+1,f
  2810     070C  0DAA               	rlf	??___flmul+2,f
  2811     070D  0DAB               	rlf	??___flmul+3,f
  2812     070E                     u1810:
  2813     070E  0B89               	decfsz	9,f
  2814     070F  2F0A               	goto	u1815
  2815     0710  0828               	movf	??___flmul,w
  2816     0711  07B4               	addwf	___flmul@prod,f
  2817     0712  0829               	movf	??___flmul+1,w
  2818     0713  3DB5               	addwfc	___flmul@prod+1,f
  2819     0714  082A               	movf	??___flmul+2,w
  2820     0715  3DB6               	addwfc	___flmul@prod+2,f
  2821     0716  082B               	movf	??___flmul+3,w
  2822     0717  3DB7               	addwfc	___flmul@prod+3,f
  2823     0718                     l1499:
  2824     0718  082E               	movf	___flmul@grs,w
  2825     0719  00A8               	movwf	??___flmul
  2826     071A  082F               	movf	___flmul@grs+1,w
  2827     071B  00A9               	movwf	??___flmul+1
  2828     071C  0830               	movf	___flmul@grs+2,w
  2829     071D  00AA               	movwf	??___flmul+2
  2830     071E  0831               	movf	___flmul@grs+3,w
  2831     071F  00AB               	movwf	??___flmul+3
  2832     0720  3018               	movlw	24
  2833     0721                     u1825:
  2834     0721  36AB               	lsrf	??___flmul+3,f
  2835     0722  0CAA               	rrf	??___flmul+2,f
  2836     0723  0CA9               	rrf	??___flmul+1,f
  2837     0724  0CA8               	rrf	??___flmul,f
  2838     0725                     u1820:
  2839     0725  0B89               	decfsz	9,f
  2840     0726  2F21               	goto	u1825
  2841     0727  0828               	movf	??___flmul,w
  2842     0728  07B4               	addwf	___flmul@prod,f
  2843     0729  0829               	movf	??___flmul+1,w
  2844     072A  3DB5               	addwfc	___flmul@prod+1,f
  2845     072B  082A               	movf	??___flmul+2,w
  2846     072C  3DB6               	addwfc	___flmul@prod+2,f
  2847     072D  082B               	movf	??___flmul+3,w
  2848     072E  3DB7               	addwfc	___flmul@prod+3,f
  2849     072F                     l1501:
  2850     072F  3008               	movlw	8
  2851     0730                     u1835:
  2852     0730  35AE               	lslf	___flmul@grs,f
  2853     0731  0DAF               	rlf	___flmul@grs+1,f
  2854     0732  0DB0               	rlf	___flmul@grs+2,f
  2855     0733  0DB1               	rlf	___flmul@grs+3,f
  2856     0734  0B89               	decfsz	9,f
  2857     0735  2F30               	goto	u1835
  2858     0736                     l1503:
  2859     0736  0833               	movf	___flmul@bexp,w
  2860     0737  0732               	addwf	___flmul@aexp,w
  2861     0738  00A8               	movwf	??___flmul
  2862     0739  01A9               	clrf	??___flmul+1
  2863     073A  0DA9               	rlf	??___flmul+1,f
  2864     073B  0828               	movf	??___flmul,w
  2865     073C  3E82               	addlw	130
  2866     073D  00B8               	movwf	___flmul@temp
  2867     073E  30FF               	movlw	255
  2868     073F  3D29               	addwfc	??___flmul+1,w
  2869     0740  00B9               	movwf	___flmul@temp+1
  2870     0741  2F59               	goto	l1515
  2871     0742                     l1505:
  2872     0742  3001               	movlw	1
  2873     0743                     u1845:
  2874     0743  35B4               	lslf	___flmul@prod,f
  2875     0744  0DB5               	rlf	___flmul@prod+1,f
  2876     0745  0DB6               	rlf	___flmul@prod+2,f
  2877     0746  0DB7               	rlf	___flmul@prod+3,f
  2878     0747  0B89               	decfsz	9,f
  2879     0748  2F43               	goto	u1845
  2880     0749                     l1507:
  2881     0749  1FB1               	btfss	___flmul@grs+3,7
  2882     074A  2F4C               	goto	u1851
  2883     074B  2F4D               	goto	u1850
  2884     074C                     u1851:
  2885     074C  2F4E               	goto	l1511
  2886     074D                     u1850:
  2887     074D                     l1509:
  2888     074D  1434               	bsf	___flmul@prod,0
  2889     074E                     l1511:
  2890     074E  3001               	movlw	1
  2891     074F                     u1865:
  2892     074F  35AE               	lslf	___flmul@grs,f
  2893     0750  0DAF               	rlf	___flmul@grs+1,f
  2894     0751  0DB0               	rlf	___flmul@grs+2,f
  2895     0752  0DB1               	rlf	___flmul@grs+3,f
  2896     0753  0B89               	decfsz	9,f
  2897     0754  2F4F               	goto	u1865
  2898     0755                     l1513:
  2899     0755  30FF               	movlw	255
  2900     0756  07B8               	addwf	___flmul@temp,f
  2901     0757  30FF               	movlw	255
  2902     0758  3DB9               	addwfc	___flmul@temp+1,f
  2903     0759                     l1515:
  2904     0759  1FB6               	btfss	___flmul@prod+2,7
  2905     075A  2F5C               	goto	u1871
  2906     075B  2F5D               	goto	u1870
  2907     075C                     u1871:
  2908     075C  2F42               	goto	l1505
  2909     075D                     u1870:
  2910     075D                     l1517:
  2911     075D  01B2               	clrf	___flmul@aexp
  2912     075E                     l1519:
  2913     075E  1FB1               	btfss	___flmul@grs+3,7
  2914     075F  2F61               	goto	u1881
  2915     0760  2F62               	goto	u1880
  2916     0761                     u1881:
  2917     0761  2F7E               	goto	l1527
  2918     0762                     u1880:
  2919     0762                     l1521:
  2920     0762  30FF               	movlw	255
  2921     0763  052E               	andwf	___flmul@grs,w
  2922     0764  00A8               	movwf	??___flmul
  2923     0765  30FF               	movlw	255
  2924     0766  052F               	andwf	___flmul@grs+1,w
  2925     0767  00A9               	movwf	??___flmul+1
  2926     0768  30FF               	movlw	255
  2927     0769  0530               	andwf	___flmul@grs+2,w
  2928     076A  00AA               	movwf	??___flmul+2
  2929     076B  307F               	movlw	127
  2930     076C  0531               	andwf	___flmul@grs+3,w
  2931     076D  00AB               	movwf	??___flmul+3
  2932     076E  082B               	movf	??___flmul+3,w
  2933     076F  042A               	iorwf	??___flmul+2,w
  2934     0770  0429               	iorwf	??___flmul+1,w
  2935     0771  0428               	iorwf	??___flmul,w
  2936     0772  1903               	skipnz
  2937     0773  2F75               	goto	u1891
  2938     0774  2F76               	goto	u1890
  2939     0775                     u1891:
  2940     0775  2F79               	goto	l536
  2941     0776                     u1890:
  2942     0776                     l1523:
  2943     0776  01B2               	clrf	___flmul@aexp
  2944     0777  0AB2               	incf	___flmul@aexp,f
  2945     0778  2F7E               	goto	l1527
  2946     0779                     l536:
  2947     0779  1C34               	btfss	___flmul@prod,0
  2948     077A  2F7C               	goto	u1901
  2949     077B  2F7D               	goto	u1900
  2950     077C                     u1901:
  2951     077C  2F7E               	goto	l1527
  2952     077D                     u1900:
  2953     077D  2F76               	goto	l1523
  2954     077E                     l1527:
  2955     077E  0832               	movf	___flmul@aexp,w
  2956     077F  1903               	btfsc	3,2
  2957     0780  2F82               	goto	u1911
  2958     0781  2F83               	goto	u1910
  2959     0782                     u1911:
  2960     0782  2FAB               	goto	l1537
  2961     0783                     u1910:
  2962     0783                     l1529:
  2963     0783  3001               	movlw	1
  2964     0784  07B4               	addwf	___flmul@prod,f
  2965     0785  3000               	movlw	0
  2966     0786  3DB5               	addwfc	___flmul@prod+1,f
  2967     0787  3000               	movlw	0
  2968     0788  3DB6               	addwfc	___flmul@prod+2,f
  2969     0789  3000               	movlw	0
  2970     078A  3DB7               	addwfc	___flmul@prod+3,f
  2971     078B                     l1531:
  2972     078B  1C37               	btfss	___flmul@prod+3,0
  2973     078C  2F8E               	goto	u1921
  2974     078D  2F8F               	goto	u1920
  2975     078E                     u1921:
  2976     078E  2FAB               	goto	l1537
  2977     078F                     u1920:
  2978     078F                     l1533:
  2979     078F  0834               	movf	___flmul@prod,w
  2980     0790  00A8               	movwf	??___flmul
  2981     0791  0835               	movf	___flmul@prod+1,w
  2982     0792  00A9               	movwf	??___flmul+1
  2983     0793  0836               	movf	___flmul@prod+2,w
  2984     0794  00AA               	movwf	??___flmul+2
  2985     0795  0837               	movf	___flmul@prod+3,w
  2986     0796  00AB               	movwf	??___flmul+3
  2987     0797  3001               	movlw	1
  2988     0798  00AC               	movwf	??___flmul+4
  2989     0799                     u1935:
  2990     0799  37AB               	asrf	??___flmul+3,f
  2991     079A  0CAA               	rrf	??___flmul+2,f
  2992     079B  0CA9               	rrf	??___flmul+1,f
  2993     079C  0CA8               	rrf	??___flmul,f
  2994     079D                     u1930:
  2995     079D  0BAC               	decfsz	??___flmul+4,f
  2996     079E  2F99               	goto	u1935
  2997     079F  082B               	movf	??___flmul+3,w
  2998     07A0  00B7               	movwf	___flmul@prod+3
  2999     07A1  082A               	movf	??___flmul+2,w
  3000     07A2  00B6               	movwf	___flmul@prod+2
  3001     07A3  0829               	movf	??___flmul+1,w
  3002     07A4  00B5               	movwf	___flmul@prod+1
  3003     07A5  0828               	movf	??___flmul,w
  3004     07A6  00B4               	movwf	___flmul@prod
  3005     07A7                     l1535:
  3006     07A7  3001               	movlw	1
  3007     07A8  07B8               	addwf	___flmul@temp,f
  3008     07A9  3000               	movlw	0
  3009     07AA  3DB9               	addwfc	___flmul@temp+1,f
  3010     07AB                     l1537:
  3011     07AB  0839               	movf	___flmul@temp+1,w
  3012     07AC  3A80               	xorlw	128
  3013     07AD  00A8               	movwf	??___flmul
  3014     07AE  3080               	movlw	128
  3015     07AF  0228               	subwf	??___flmul,w
  3016     07B0  1D03               	skipz
  3017     07B1  2FB4               	goto	u1945
  3018     07B2  30FF               	movlw	255
  3019     07B3  0238               	subwf	___flmul@temp,w
  3020     07B4                     u1945:
  3021     07B4  1C03               	skipc
  3022     07B5  2FB7               	goto	u1941
  3023     07B6  2FB8               	goto	u1940
  3024     07B7                     u1941:
  3025     07B7  2FC2               	goto	l1541
  3026     07B8                     u1940:
  3027     07B8                     l1539:
  3028     07B8  307F               	movlw	127
  3029     07B9  0020               	movlb	0	; select bank0
  3030     07BA  00B7               	movwf	___flmul@prod+3
  3031     07BB  3080               	movlw	128
  3032     07BC  00B6               	movwf	___flmul@prod+2
  3033     07BD  3000               	movlw	0
  3034     07BE  00B5               	movwf	___flmul@prod+1
  3035     07BF  3000               	movlw	0
  3036     07C0  00B4               	movwf	___flmul@prod
  3037     07C1  2FED               	goto	l542
  3038     07C2                     l1541:
  3039     07C2  0020               	movlb	0	; select bank0
  3040     07C3  0839               	movf	___flmul@temp+1,w
  3041     07C4  3A80               	xorlw	128
  3042     07C5  00A8               	movwf	??___flmul
  3043     07C6  3080               	movlw	128
  3044     07C7  0228               	subwf	??___flmul,w
  3045     07C8  1D03               	skipz
  3046     07C9  2FCC               	goto	u1955
  3047     07CA  3001               	movlw	1
  3048     07CB  0238               	subwf	___flmul@temp,w
  3049     07CC                     u1955:
  3050     07CC  1803               	skipnc
  3051     07CD  2FCF               	goto	u1951
  3052     07CE  2FD0               	goto	u1950
  3053     07CF                     u1951:
  3054     07CF  2FDB               	goto	l1547
  3055     07D0                     u1950:
  3056     07D0                     l1543:
  3057     07D0  3000               	movlw	0
  3058     07D1  0020               	movlb	0	; select bank0
  3059     07D2  00B7               	movwf	___flmul@prod+3
  3060     07D3  3000               	movlw	0
  3061     07D4  00B6               	movwf	___flmul@prod+2
  3062     07D5  3000               	movlw	0
  3063     07D6  00B5               	movwf	___flmul@prod+1
  3064     07D7  3000               	movlw	0
  3065     07D8  00B4               	movwf	___flmul@prod
  3066     07D9                     l1545:
  3067     07D9  01AD               	clrf	___flmul@sign
  3068     07DA  2FED               	goto	l542
  3069     07DB                     l1547:
  3070     07DB  0020               	movlb	0	; select bank0
  3071     07DC  0838               	movf	___flmul@temp,w
  3072     07DD  00B3               	movwf	___flmul@bexp
  3073     07DE  30FF               	movlw	255
  3074     07DF  05B4               	andwf	___flmul@prod,f
  3075     07E0  30FF               	movlw	255
  3076     07E1  05B5               	andwf	___flmul@prod+1,f
  3077     07E2  307F               	movlw	127
  3078     07E3  05B6               	andwf	___flmul@prod+2,f
  3079     07E4  3000               	movlw	0
  3080     07E5  05B7               	andwf	___flmul@prod+3,f
  3081     07E6                     l1549:
  3082     07E6  1C33               	btfss	___flmul@bexp,0
  3083     07E7  2FE9               	goto	u1961
  3084     07E8  2FEA               	goto	u1960
  3085     07E9                     u1961:
  3086     07E9  2FEB               	goto	l1553
  3087     07EA                     u1960:
  3088     07EA                     l1551:
  3089     07EA  17B6               	bsf	___flmul@prod+2,7
  3090     07EB                     l1553:
  3091     07EB  3633               	lsrf	___flmul@bexp,w
  3092     07EC  00B7               	movwf	___flmul@prod+3
  3093     07ED                     l542:
  3094     07ED  082D               	movf	___flmul@sign,w
  3095     07EE  00A8               	movwf	??___flmul
  3096     07EF  0828               	movf	??___flmul,w
  3097     07F0  04B7               	iorwf	___flmul@prod+3,f
  3098     07F1                     l1555:
  3099     07F1  0837               	movf	___flmul@prod+3,w
  3100     07F2  00A3               	movwf	?___flmul+3
  3101     07F3  0836               	movf	___flmul@prod+2,w
  3102     07F4  00A2               	movwf	?___flmul+2
  3103     07F5  0835               	movf	___flmul@prod+1,w
  3104     07F6  00A1               	movwf	?___flmul+1
  3105     07F7  0834               	movf	___flmul@prod,w
  3106     07F8  00A0               	movwf	?___flmul
  3107     07F9                     l530:
  3108     07F9  0008               	return
  3109     07FA                     __end_of___flmul:
  3110                           
  3111                           	psect	text9
  3112     0F12                     __ptext9:	
  3113 ;; *************** function __Umul8_16 *****************
  3114 ;; Defined at:
  3115 ;;		line 4 in file "C:\Program Files\Microchip\xc8\v2.40\pic\sources\c99\common\Umul8_16.c"
  3116 ;; Parameters:    Size  Location     Type
  3117 ;;  multiplier      1    wreg     unsigned char 
  3118 ;;  multiplicand    1    0[COMMON] unsigned char 
  3119 ;; Auto vars:     Size  Location     Type
  3120 ;;  multiplier      1    8[COMMON] unsigned char 
  3121 ;;  word_mpld       2    6[COMMON] unsigned int 
  3122 ;;  product         2    4[COMMON] unsigned int 
  3123 ;; Return value:  Size  Location     Type
  3124 ;;                  2    0[COMMON] unsigned int 
  3125 ;; Registers used:
  3126 ;;		wreg, status,2, status,0
  3127 ;; Tracked objects:
  3128 ;;		On entry : 0/0
  3129 ;;		On exit  : 0/0
  3130 ;;		Unchanged: 0/0
  3131 ;; Data sizes:     COMMON   BANK0   BANK1   BANK2   BANK3   BANK4   BANK5   BANK6   BANK7   BANK8   BANK9  BANK10  BANK1
      +1  BANK12
  3132 ;;      Params:         2       0       0       0       0       0       0       0       0       0       0       0       
      +0       0
  3133 ;;      Locals:         5       0       0       0       0       0       0       0       0       0       0       0       
      +0       0
  3134 ;;      Temps:          2       0       0       0       0       0       0       0       0       0       0       0       
      +0       0
  3135 ;;      Totals:         9       0       0       0       0       0       0       0       0       0       0       0       
      +0       0
  3136 ;;Total ram usage:        9 bytes
  3137 ;; Hardware stack levels used: 1
  3138 ;; This function calls:
  3139 ;;		Nothing
  3140 ;; This function is called by:
  3141 ;;		___flmul
  3142 ;; This function uses a non-reentrant model
  3143 ;;
  3144                           
  3145     0F12                     __Umul8_16:	
  3146                           ;psect for function __Umul8_16
  3147                           
  3148                           
  3149                           ;incstack = 0
  3150                           ; Regs used in __Umul8_16: [wreg+status,2+status,0]
  3151                           ;__Umul8_16@multiplier stored from wreg
  3152     0F12  00F8               	movwf	__Umul8_16@multiplier
  3153     0F13                     l1229:
  3154     0F13  01F4               	clrf	__Umul8_16@product
  3155     0F14  01F5               	clrf	__Umul8_16@product+1
  3156     0F15                     l1231:
  3157     0F15  0870               	movf	__Umul8_16@multiplicand,w
  3158     0F16  00F2               	movwf	??__Umul8_16
  3159     0F17  01F3               	clrf	??__Umul8_16+1
  3160     0F18  0872               	movf	??__Umul8_16,w
  3161     0F19  00F6               	movwf	__Umul8_16@word_mpld
  3162     0F1A  0873               	movf	??__Umul8_16+1,w
  3163     0F1B  00F7               	movwf	__Umul8_16@word_mpld+1
  3164     0F1C                     l1233:
  3165     0F1C  1C78               	btfss	__Umul8_16@multiplier,0
  3166     0F1D  2F1F               	goto	u1291
  3167     0F1E  2F20               	goto	u1290
  3168     0F1F                     u1291:
  3169     0F1F  2F24               	goto	l549
  3170     0F20                     u1290:
  3171     0F20                     l1235:
  3172     0F20  0876               	movf	__Umul8_16@word_mpld,w
  3173     0F21  07F4               	addwf	__Umul8_16@product,f
  3174     0F22  0877               	movf	__Umul8_16@word_mpld+1,w
  3175     0F23  3DF5               	addwfc	__Umul8_16@product+1,f
  3176     0F24                     l549:
  3177     0F24  3001               	movlw	1
  3178     0F25                     u1305:
  3179     0F25  35F6               	lslf	__Umul8_16@word_mpld,f
  3180     0F26  0DF7               	rlf	__Umul8_16@word_mpld+1,f
  3181     0F27  0B89               	decfsz	9,f
  3182     0F28  2F25               	goto	u1305
  3183     0F29  1003               	clrc
  3184     0F2A  0CF8               	rrf	__Umul8_16@multiplier,f
  3185     0F2B                     l1237:
  3186     0F2B  0878               	movf	__Umul8_16@multiplier,w
  3187     0F2C  1D03               	btfss	3,2
  3188     0F2D  2F2F               	goto	u1311
  3189     0F2E  2F30               	goto	u1310
  3190     0F2F                     u1311:
  3191     0F2F  2F1C               	goto	l1233
  3192     0F30                     u1310:
  3193     0F30                     l1239:
  3194     0F30  0875               	movf	__Umul8_16@product+1,w
  3195     0F31  00F1               	movwf	?__Umul8_16+1
  3196     0F32  0874               	movf	__Umul8_16@product,w
  3197     0F33  00F0               	movwf	?__Umul8_16
  3198     0F34                     l551:
  3199     0F34  0008               	return
  3200     0F35                     __end_of__Umul8_16:
  3201                           
  3202                           	psect	text10
  3203     020D                     __ptext10:	
  3204 ;; *************** function ___fldiv *****************
  3205 ;; Defined at:
  3206 ;;		line 8 in file "C:\Program Files\Microchip\xc8\v2.40\pic\sources\c99\common\sprcdiv.c"
  3207 ;; Parameters:    Size  Location     Type
  3208 ;;  a               4   26[BANK0 ] unsigned int 
  3209 ;;  b               4   30[BANK0 ] unsigned int 
  3210 ;; Auto vars:     Size  Location     Type
  3211 ;;  grs             4   46[BANK0 ] unsigned long 
  3212 ;;  rem             4   39[BANK0 ] unsigned long 
  3213 ;;  new_exp         2   44[BANK0 ] int 
  3214 ;;  aexp            1   51[BANK0 ] unsigned char 
  3215 ;;  bexp            1   50[BANK0 ] unsigned char 
  3216 ;;  sign            1   43[BANK0 ] unsigned char 
  3217 ;; Return value:  Size  Location     Type
  3218 ;;                  4   26[BANK0 ] unsigned char 
  3219 ;; Registers used:
  3220 ;;		wreg, status,2, status,0
  3221 ;; Tracked objects:
  3222 ;;		On entry : 0/0
  3223 ;;		On exit  : 0/0
  3224 ;;		Unchanged: 0/0
  3225 ;; Data sizes:     COMMON   BANK0   BANK1   BANK2   BANK3   BANK4   BANK5   BANK6   BANK7   BANK8   BANK9  BANK10  BANK1
      +1  BANK12
  3226 ;;      Params:         0       8       0       0       0       0       0       0       0       0       0       0       
      +0       0
  3227 ;;      Locals:         0      13       0       0       0       0       0       0       0       0       0       0       
      +0       0
  3228 ;;      Temps:          0       5       0       0       0       0       0       0       0       0       0       0       
      +0       0
  3229 ;;      Totals:         0      26       0       0       0       0       0       0       0       0       0       0       
      +0       0
  3230 ;;Total ram usage:       26 bytes
  3231 ;; Hardware stack levels used: 1
  3232 ;; This function calls:
  3233 ;;		Nothing
  3234 ;; This function is called by:
  3235 ;;		_pwm_set_freq
  3236 ;;		_pwm_calculate_duty
  3237 ;; This function uses a non-reentrant model
  3238 ;;
  3239                           
  3240     020D                     ___fldiv:	
  3241                           ;psect for function ___fldiv
  3242                           
  3243     020D                     l1279:	
  3244                           ;incstack = 0
  3245                           ; Regs used in ___fldiv: [wreg+status,2+status,0]
  3246                           
  3247     020D  0020               	movlb	0	; select bank0
  3248     020E  0841               	movf	___fldiv@b+3,w
  3249     020F  3980               	andlw	128
  3250     0210  00CB               	movwf	___fldiv@sign
  3251     0211                     l1281:
  3252     0211  3541               	lslf	___fldiv@b+3,w
  3253     0212  00D2               	movwf	___fldiv@bexp
  3254     0213                     l1283:
  3255     0213  1FC0               	btfss	___fldiv@b+2,7
  3256     0214  2A16               	goto	u1421
  3257     0215  2A17               	goto	u1420
  3258     0216                     u1421:
  3259     0216  2A18               	goto	l1287
  3260     0217                     u1420:
  3261     0217                     l1285:
  3262     0217  1452               	bsf	___fldiv@bexp,0
  3263     0218                     l1287:
  3264     0218  0852               	movf	___fldiv@bexp,w
  3265     0219  1903               	btfsc	3,2
  3266     021A  2A1C               	goto	u1431
  3267     021B  2A1D               	goto	u1430
  3268     021C                     u1431:
  3269     021C  2A2D               	goto	l1297
  3270     021D                     u1430:
  3271     021D                     l1289:
  3272     021D  0A52               	incf	___fldiv@bexp,w
  3273     021E  1D03               	btfss	3,2
  3274     021F  2A21               	goto	u1441
  3275     0220  2A22               	goto	u1440
  3276     0221                     u1441:
  3277     0221  2A2A               	goto	l1293
  3278     0222                     u1440:
  3279     0222                     l1291:
  3280     0222  3000               	movlw	0
  3281     0223  00C1               	movwf	___fldiv@b+3
  3282     0224  3000               	movlw	0
  3283     0225  00C0               	movwf	___fldiv@b+2
  3284     0226  3000               	movlw	0
  3285     0227  00BF               	movwf	___fldiv@b+1
  3286     0228  3000               	movlw	0
  3287     0229  00BE               	movwf	___fldiv@b
  3288     022A                     l1293:
  3289     022A  17C0               	bsf	___fldiv@b+2,7
  3290     022B                     l1295:
  3291     022B  01C1               	clrf	___fldiv@b+3
  3292     022C  2A35               	goto	l1299
  3293     022D                     l1297:
  3294     022D  3000               	movlw	0
  3295     022E  00C1               	movwf	___fldiv@b+3
  3296     022F  3000               	movlw	0
  3297     0230  00C0               	movwf	___fldiv@b+2
  3298     0231  3000               	movlw	0
  3299     0232  00BF               	movwf	___fldiv@b+1
  3300     0233  3000               	movlw	0
  3301     0234  00BE               	movwf	___fldiv@b
  3302     0235                     l1299:
  3303     0235  083D               	movf	___fldiv@a+3,w
  3304     0236  3980               	andlw	128
  3305     0237  00C2               	movwf	??___fldiv
  3306     0238  0842               	movf	??___fldiv,w
  3307     0239  06CB               	xorwf	___fldiv@sign,f
  3308     023A                     l1301:
  3309     023A  353D               	lslf	___fldiv@a+3,w
  3310     023B  00D3               	movwf	___fldiv@aexp
  3311     023C                     l1303:
  3312     023C  1FBC               	btfss	___fldiv@a+2,7
  3313     023D  2A3F               	goto	u1451
  3314     023E  2A40               	goto	u1450
  3315     023F                     u1451:
  3316     023F  2A41               	goto	l1307
  3317     0240                     u1450:
  3318     0240                     l1305:
  3319     0240  1453               	bsf	___fldiv@aexp,0
  3320     0241                     l1307:
  3321     0241  0853               	movf	___fldiv@aexp,w
  3322     0242  1903               	btfsc	3,2
  3323     0243  2A45               	goto	u1461
  3324     0244  2A46               	goto	u1460
  3325     0245                     u1461:
  3326     0245  2A56               	goto	l1317
  3327     0246                     u1460:
  3328     0246                     l1309:
  3329     0246  0A53               	incf	___fldiv@aexp,w
  3330     0247  1D03               	btfss	3,2
  3331     0248  2A4A               	goto	u1471
  3332     0249  2A4B               	goto	u1470
  3333     024A                     u1471:
  3334     024A  2A53               	goto	l1313
  3335     024B                     u1470:
  3336     024B                     l1311:
  3337     024B  3000               	movlw	0
  3338     024C  00BD               	movwf	___fldiv@a+3
  3339     024D  3000               	movlw	0
  3340     024E  00BC               	movwf	___fldiv@a+2
  3341     024F  3000               	movlw	0
  3342     0250  00BB               	movwf	___fldiv@a+1
  3343     0251  3000               	movlw	0
  3344     0252  00BA               	movwf	___fldiv@a
  3345     0253                     l1313:
  3346     0253  17BC               	bsf	___fldiv@a+2,7
  3347     0254                     l1315:
  3348     0254  01BD               	clrf	___fldiv@a+3
  3349     0255  2A5E               	goto	l490
  3350     0256                     l1317:
  3351     0256  3000               	movlw	0
  3352     0257  00BD               	movwf	___fldiv@a+3
  3353     0258  3000               	movlw	0
  3354     0259  00BC               	movwf	___fldiv@a+2
  3355     025A  3000               	movlw	0
  3356     025B  00BB               	movwf	___fldiv@a+1
  3357     025C  3000               	movlw	0
  3358     025D  00BA               	movwf	___fldiv@a
  3359     025E                     l490:
  3360     025E  083D               	movf	___fldiv@a+3,w
  3361     025F  043C               	iorwf	___fldiv@a+2,w
  3362     0260  043B               	iorwf	___fldiv@a+1,w
  3363     0261  043A               	iorwf	___fldiv@a,w
  3364     0262  1D03               	skipz
  3365     0263  2A65               	goto	u1481
  3366     0264  2A66               	goto	u1480
  3367     0265                     u1481:
  3368     0265  2A7F               	goto	l1327
  3369     0266                     u1480:
  3370     0266                     l1319:
  3371     0266  3000               	movlw	0
  3372     0267  00C1               	movwf	___fldiv@b+3
  3373     0268  3000               	movlw	0
  3374     0269  00C0               	movwf	___fldiv@b+2
  3375     026A  3000               	movlw	0
  3376     026B  00BF               	movwf	___fldiv@b+1
  3377     026C  3000               	movlw	0
  3378     026D  00BE               	movwf	___fldiv@b
  3379     026E  3080               	movlw	128
  3380     026F  04C0               	iorwf	___fldiv@b+2,f
  3381     0270  307F               	movlw	127
  3382     0271  04C1               	iorwf	___fldiv@b+3,f
  3383     0272                     l1321:
  3384     0272  084B               	movf	___fldiv@sign,w
  3385     0273  00C2               	movwf	??___fldiv
  3386     0274  0842               	movf	??___fldiv,w
  3387     0275  04C1               	iorwf	___fldiv@b+3,f
  3388     0276                     l1323:
  3389     0276  0841               	movf	___fldiv@b+3,w
  3390     0277  00BD               	movwf	?___fldiv+3
  3391     0278  0840               	movf	___fldiv@b+2,w
  3392     0279  00BC               	movwf	?___fldiv+2
  3393     027A  083F               	movf	___fldiv@b+1,w
  3394     027B  00BB               	movwf	?___fldiv+1
  3395     027C  083E               	movf	___fldiv@b,w
  3396     027D  00BA               	movwf	?___fldiv
  3397     027E  2BB6               	goto	l492
  3398     027F                     l1327:
  3399     027F  0852               	movf	___fldiv@bexp,w
  3400     0280  1D03               	btfss	3,2
  3401     0281  2A83               	goto	u1491
  3402     0282  2A84               	goto	u1490
  3403     0283                     u1491:
  3404     0283  2A8D               	goto	l1333
  3405     0284                     u1490:
  3406     0284                     l1329:
  3407     0284  3000               	movlw	0
  3408     0285  00BD               	movwf	?___fldiv+3
  3409     0286  3000               	movlw	0
  3410     0287  00BC               	movwf	?___fldiv+2
  3411     0288  3000               	movlw	0
  3412     0289  00BB               	movwf	?___fldiv+1
  3413     028A  3000               	movlw	0
  3414     028B  00BA               	movwf	?___fldiv
  3415     028C  2BB6               	goto	l492
  3416     028D                     l1333:
  3417     028D  0852               	movf	___fldiv@bexp,w
  3418     028E  00C2               	movwf	??___fldiv
  3419     028F  01C3               	clrf	??___fldiv+1
  3420     0290  0843               	movf	??___fldiv+1,w
  3421     0291  00C5               	movwf	??___fldiv+3
  3422     0292  0853               	movf	___fldiv@aexp,w
  3423     0293  0242               	subwf	??___fldiv,w
  3424     0294  00C4               	movwf	??___fldiv+2
  3425     0295  1C03               	skipc
  3426     0296  03C5               	decf	??___fldiv+3,f
  3427     0297  0844               	movf	??___fldiv+2,w
  3428     0298  3E7F               	addlw	127
  3429     0299  00CC               	movwf	___fldiv@new_exp
  3430     029A  3000               	movlw	0
  3431     029B  3D45               	addwfc	??___fldiv+3,w
  3432     029C  00CD               	movwf	___fldiv@new_exp+1
  3433     029D                     l1335:
  3434     029D  0841               	movf	___fldiv@b+3,w
  3435     029E  00CA               	movwf	___fldiv@rem+3
  3436     029F  0840               	movf	___fldiv@b+2,w
  3437     02A0  00C9               	movwf	___fldiv@rem+2
  3438     02A1  083F               	movf	___fldiv@b+1,w
  3439     02A2  00C8               	movwf	___fldiv@rem+1
  3440     02A3  083E               	movf	___fldiv@b,w
  3441     02A4  00C7               	movwf	___fldiv@rem
  3442     02A5                     l1337:
  3443     02A5  3000               	movlw	0
  3444     02A6  00C1               	movwf	___fldiv@b+3
  3445     02A7  3000               	movlw	0
  3446     02A8  00C0               	movwf	___fldiv@b+2
  3447     02A9  3000               	movlw	0
  3448     02AA  00BF               	movwf	___fldiv@b+1
  3449     02AB  3000               	movlw	0
  3450     02AC  00BE               	movwf	___fldiv@b
  3451     02AD                     l1339:
  3452     02AD  3000               	movlw	0
  3453     02AE  00D1               	movwf	___fldiv@grs+3
  3454     02AF  3000               	movlw	0
  3455     02B0  00D0               	movwf	___fldiv@grs+2
  3456     02B1  3000               	movlw	0
  3457     02B2  00CF               	movwf	___fldiv@grs+1
  3458     02B3  3000               	movlw	0
  3459     02B4  00CE               	movwf	___fldiv@grs
  3460     02B5                     l1341:
  3461     02B5  01D3               	clrf	___fldiv@aexp
  3462     02B6  2AF5               	goto	l1361
  3463     02B7                     l1343:
  3464     02B7  0853               	movf	___fldiv@aexp,w
  3465     02B8  1903               	btfsc	3,2
  3466     02B9  2ABB               	goto	u1501
  3467     02BA  2ABC               	goto	u1500
  3468     02BB                     u1501:
  3469     02BB  2AD6               	goto	l1353
  3470     02BC                     u1500:
  3471     02BC                     l1345:
  3472     02BC  3001               	movlw	1
  3473     02BD                     u1515:
  3474     02BD  35C7               	lslf	___fldiv@rem,f
  3475     02BE  0DC8               	rlf	___fldiv@rem+1,f
  3476     02BF  0DC9               	rlf	___fldiv@rem+2,f
  3477     02C0  0DCA               	rlf	___fldiv@rem+3,f
  3478     02C1  0B89               	decfsz	9,f
  3479     02C2  2ABD               	goto	u1515
  3480     02C3  3001               	movlw	1
  3481     02C4                     u1525:
  3482     02C4  35BE               	lslf	___fldiv@b,f
  3483     02C5  0DBF               	rlf	___fldiv@b+1,f
  3484     02C6  0DC0               	rlf	___fldiv@b+2,f
  3485     02C7  0DC1               	rlf	___fldiv@b+3,f
  3486     02C8  0B89               	decfsz	9,f
  3487     02C9  2AC4               	goto	u1525
  3488     02CA                     l1347:
  3489     02CA  1FD1               	btfss	___fldiv@grs+3,7
  3490     02CB  2ACD               	goto	u1531
  3491     02CC  2ACE               	goto	u1530
  3492     02CD                     u1531:
  3493     02CD  2ACF               	goto	l1351
  3494     02CE                     u1530:
  3495     02CE                     l1349:
  3496     02CE  143E               	bsf	___fldiv@b,0
  3497     02CF                     l1351:
  3498     02CF  3001               	movlw	1
  3499     02D0                     u1545:
  3500     02D0  35CE               	lslf	___fldiv@grs,f
  3501     02D1  0DCF               	rlf	___fldiv@grs+1,f
  3502     02D2  0DD0               	rlf	___fldiv@grs+2,f
  3503     02D3  0DD1               	rlf	___fldiv@grs+3,f
  3504     02D4  0B89               	decfsz	9,f
  3505     02D5  2AD0               	goto	u1545
  3506     02D6                     l1353:
  3507     02D6  083D               	movf	___fldiv@a+3,w
  3508     02D7  024A               	subwf	___fldiv@rem+3,w
  3509     02D8  1D03               	skipz
  3510     02D9  2AE4               	goto	u1555
  3511     02DA  083C               	movf	___fldiv@a+2,w
  3512     02DB  0249               	subwf	___fldiv@rem+2,w
  3513     02DC  1D03               	skipz
  3514     02DD  2AE4               	goto	u1555
  3515     02DE  083B               	movf	___fldiv@a+1,w
  3516     02DF  0248               	subwf	___fldiv@rem+1,w
  3517     02E0  1D03               	skipz
  3518     02E1  2AE4               	goto	u1555
  3519     02E2  083A               	movf	___fldiv@a,w
  3520     02E3  0247               	subwf	___fldiv@rem,w
  3521     02E4                     u1555:
  3522     02E4  1C03               	skipc
  3523     02E5  2AE7               	goto	u1551
  3524     02E6  2AE8               	goto	u1550
  3525     02E7                     u1551:
  3526     02E7  2AF1               	goto	l1359
  3527     02E8                     u1550:
  3528     02E8                     l1355:
  3529     02E8  1751               	bsf	___fldiv@grs+3,6
  3530     02E9                     l1357:
  3531     02E9  083A               	movf	___fldiv@a,w
  3532     02EA  02C7               	subwf	___fldiv@rem,f
  3533     02EB  083B               	movf	___fldiv@a+1,w
  3534     02EC  3BC8               	subwfb	___fldiv@rem+1,f
  3535     02ED  083C               	movf	___fldiv@a+2,w
  3536     02EE  3BC9               	subwfb	___fldiv@rem+2,f
  3537     02EF  083D               	movf	___fldiv@a+3,w
  3538     02F0  3BCA               	subwfb	___fldiv@rem+3,f
  3539     02F1                     l1359:
  3540     02F1  3001               	movlw	1
  3541     02F2  00C2               	movwf	??___fldiv
  3542     02F3  0842               	movf	??___fldiv,w
  3543     02F4  07D3               	addwf	___fldiv@aexp,f
  3544     02F5                     l1361:
  3545     02F5  301A               	movlw	26
  3546     02F6  0253               	subwf	___fldiv@aexp,w
  3547     02F7  1C03               	skipc
  3548     02F8  2AFA               	goto	u1561
  3549     02F9  2AFB               	goto	u1560
  3550     02FA                     u1561:
  3551     02FA  2AB7               	goto	l1343
  3552     02FB                     u1560:
  3553     02FB                     l1363:
  3554     02FB  084A               	movf	___fldiv@rem+3,w
  3555     02FC  0449               	iorwf	___fldiv@rem+2,w
  3556     02FD  0448               	iorwf	___fldiv@rem+1,w
  3557     02FE  0447               	iorwf	___fldiv@rem,w
  3558     02FF  1903               	skipnz
  3559     0300  2B02               	goto	u1571
  3560     0301  2B03               	goto	u1570
  3561     0302                     u1571:
  3562     0302  2B1C               	goto	l1377
  3563     0303                     u1570:
  3564     0303                     l1365:
  3565     0303  144E               	bsf	___fldiv@grs,0
  3566     0304  2B1C               	goto	l1377
  3567     0305                     l1367:
  3568     0305  3001               	movlw	1
  3569     0306                     u1585:
  3570     0306  35BE               	lslf	___fldiv@b,f
  3571     0307  0DBF               	rlf	___fldiv@b+1,f
  3572     0308  0DC0               	rlf	___fldiv@b+2,f
  3573     0309  0DC1               	rlf	___fldiv@b+3,f
  3574     030A  0B89               	decfsz	9,f
  3575     030B  2B06               	goto	u1585
  3576     030C                     l1369:
  3577     030C  1FD1               	btfss	___fldiv@grs+3,7
  3578     030D  2B0F               	goto	u1591
  3579     030E  2B10               	goto	u1590
  3580     030F                     u1591:
  3581     030F  2B11               	goto	l1373
  3582     0310                     u1590:
  3583     0310                     l1371:
  3584     0310  143E               	bsf	___fldiv@b,0
  3585     0311                     l1373:
  3586     0311  3001               	movlw	1
  3587     0312                     u1605:
  3588     0312  35CE               	lslf	___fldiv@grs,f
  3589     0313  0DCF               	rlf	___fldiv@grs+1,f
  3590     0314  0DD0               	rlf	___fldiv@grs+2,f
  3591     0315  0DD1               	rlf	___fldiv@grs+3,f
  3592     0316  0B89               	decfsz	9,f
  3593     0317  2B12               	goto	u1605
  3594     0318                     l1375:
  3595     0318  30FF               	movlw	255
  3596     0319  07CC               	addwf	___fldiv@new_exp,f
  3597     031A  30FF               	movlw	255
  3598     031B  3DCD               	addwfc	___fldiv@new_exp+1,f
  3599     031C                     l1377:
  3600     031C  1FC0               	btfss	___fldiv@b+2,7
  3601     031D  2B1F               	goto	u1611
  3602     031E  2B20               	goto	u1610
  3603     031F                     u1611:
  3604     031F  2B05               	goto	l1367
  3605     0320                     u1610:
  3606     0320                     l1379:
  3607     0320  01D3               	clrf	___fldiv@aexp
  3608     0321                     l1381:
  3609     0321  1FD1               	btfss	___fldiv@grs+3,7
  3610     0322  2B24               	goto	u1621
  3611     0323  2B25               	goto	u1620
  3612     0324                     u1621:
  3613     0324  2B41               	goto	l1389
  3614     0325                     u1620:
  3615     0325                     l1383:
  3616     0325  30FF               	movlw	255
  3617     0326  054E               	andwf	___fldiv@grs,w
  3618     0327  00C2               	movwf	??___fldiv
  3619     0328  30FF               	movlw	255
  3620     0329  054F               	andwf	___fldiv@grs+1,w
  3621     032A  00C3               	movwf	??___fldiv+1
  3622     032B  30FF               	movlw	255
  3623     032C  0550               	andwf	___fldiv@grs+2,w
  3624     032D  00C4               	movwf	??___fldiv+2
  3625     032E  307F               	movlw	127
  3626     032F  0551               	andwf	___fldiv@grs+3,w
  3627     0330  00C5               	movwf	??___fldiv+3
  3628     0331  0845               	movf	??___fldiv+3,w
  3629     0332  0444               	iorwf	??___fldiv+2,w
  3630     0333  0443               	iorwf	??___fldiv+1,w
  3631     0334  0442               	iorwf	??___fldiv,w
  3632     0335  1903               	skipnz
  3633     0336  2B38               	goto	u1631
  3634     0337  2B39               	goto	u1630
  3635     0338                     u1631:
  3636     0338  2B3C               	goto	l506
  3637     0339                     u1630:
  3638     0339                     l1385:
  3639     0339  01D3               	clrf	___fldiv@aexp
  3640     033A  0AD3               	incf	___fldiv@aexp,f
  3641     033B  2B41               	goto	l1389
  3642     033C                     l506:
  3643     033C  1C3E               	btfss	___fldiv@b,0
  3644     033D  2B3F               	goto	u1641
  3645     033E  2B40               	goto	u1640
  3646     033F                     u1641:
  3647     033F  2B41               	goto	l1389
  3648     0340                     u1640:
  3649     0340  2B39               	goto	l1385
  3650     0341                     l1389:
  3651     0341  0853               	movf	___fldiv@aexp,w
  3652     0342  1903               	btfsc	3,2
  3653     0343  2B45               	goto	u1651
  3654     0344  2B46               	goto	u1650
  3655     0345                     u1651:
  3656     0345  2B6E               	goto	l1399
  3657     0346                     u1650:
  3658     0346                     l1391:
  3659     0346  3001               	movlw	1
  3660     0347  07BE               	addwf	___fldiv@b,f
  3661     0348  3000               	movlw	0
  3662     0349  3DBF               	addwfc	___fldiv@b+1,f
  3663     034A  3000               	movlw	0
  3664     034B  3DC0               	addwfc	___fldiv@b+2,f
  3665     034C  3000               	movlw	0
  3666     034D  3DC1               	addwfc	___fldiv@b+3,f
  3667     034E                     l1393:
  3668     034E  1C41               	btfss	___fldiv@b+3,0
  3669     034F  2B51               	goto	u1661
  3670     0350  2B52               	goto	u1660
  3671     0351                     u1661:
  3672     0351  2B6E               	goto	l1399
  3673     0352                     u1660:
  3674     0352                     l1395:
  3675     0352  083E               	movf	___fldiv@b,w
  3676     0353  00C2               	movwf	??___fldiv
  3677     0354  083F               	movf	___fldiv@b+1,w
  3678     0355  00C3               	movwf	??___fldiv+1
  3679     0356  0840               	movf	___fldiv@b+2,w
  3680     0357  00C4               	movwf	??___fldiv+2
  3681     0358  0841               	movf	___fldiv@b+3,w
  3682     0359  00C5               	movwf	??___fldiv+3
  3683     035A  3001               	movlw	1
  3684     035B  00C6               	movwf	??___fldiv+4
  3685     035C                     u1675:
  3686     035C  37C5               	asrf	??___fldiv+3,f
  3687     035D  0CC4               	rrf	??___fldiv+2,f
  3688     035E  0CC3               	rrf	??___fldiv+1,f
  3689     035F  0CC2               	rrf	??___fldiv,f
  3690     0360                     u1670:
  3691     0360  0BC6               	decfsz	??___fldiv+4,f
  3692     0361  2B5C               	goto	u1675
  3693     0362  0845               	movf	??___fldiv+3,w
  3694     0363  00C1               	movwf	___fldiv@b+3
  3695     0364  0844               	movf	??___fldiv+2,w
  3696     0365  00C0               	movwf	___fldiv@b+2
  3697     0366  0843               	movf	??___fldiv+1,w
  3698     0367  00BF               	movwf	___fldiv@b+1
  3699     0368  0842               	movf	??___fldiv,w
  3700     0369  00BE               	movwf	___fldiv@b
  3701     036A                     l1397:
  3702     036A  3001               	movlw	1
  3703     036B  07CC               	addwf	___fldiv@new_exp,f
  3704     036C  3000               	movlw	0
  3705     036D  3DCD               	addwfc	___fldiv@new_exp+1,f
  3706     036E                     l1399:
  3707     036E  084D               	movf	___fldiv@new_exp+1,w
  3708     036F  3A80               	xorlw	128
  3709     0370  00C2               	movwf	??___fldiv
  3710     0371  3080               	movlw	128
  3711     0372  0242               	subwf	??___fldiv,w
  3712     0373  1D03               	skipz
  3713     0374  2B77               	goto	u1685
  3714     0375  30FF               	movlw	255
  3715     0376  024C               	subwf	___fldiv@new_exp,w
  3716     0377                     u1685:
  3717     0377  1C03               	skipc
  3718     0378  2B7A               	goto	u1681
  3719     0379  2B7B               	goto	u1680
  3720     037A                     u1681:
  3721     037A  2B88               	goto	l511
  3722     037B                     u1680:
  3723     037B                     l1401:
  3724     037B  30FF               	movlw	255
  3725     037C  0020               	movlb	0	; select bank0
  3726     037D  00CC               	movwf	___fldiv@new_exp
  3727     037E  3000               	movlw	0
  3728     037F  00CD               	movwf	___fldiv@new_exp+1
  3729     0380  3000               	movlw	0
  3730     0381  00C1               	movwf	___fldiv@b+3
  3731     0382  3000               	movlw	0
  3732     0383  00C0               	movwf	___fldiv@b+2
  3733     0384  3000               	movlw	0
  3734     0385  00BF               	movwf	___fldiv@b+1
  3735     0386  3000               	movlw	0
  3736     0387  00BE               	movwf	___fldiv@b
  3737     0388                     l511:
  3738     0388  0020               	movlb	0	; select bank0
  3739     0389  084D               	movf	___fldiv@new_exp+1,w
  3740     038A  3A80               	xorlw	128
  3741     038B  00C2               	movwf	??___fldiv
  3742     038C  3080               	movlw	128
  3743     038D  0242               	subwf	??___fldiv,w
  3744     038E  1D03               	skipz
  3745     038F  2B92               	goto	u1695
  3746     0390  3001               	movlw	1
  3747     0391  024C               	subwf	___fldiv@new_exp,w
  3748     0392                     u1695:
  3749     0392  1803               	skipnc
  3750     0393  2B95               	goto	u1691
  3751     0394  2B96               	goto	u1690
  3752     0395                     u1691:
  3753     0395  2BA2               	goto	l512
  3754     0396                     u1690:
  3755     0396                     l1403:
  3756     0396  0020               	movlb	0	; select bank0
  3757     0397  01CC               	clrf	___fldiv@new_exp
  3758     0398  01CD               	clrf	___fldiv@new_exp+1
  3759     0399                     l1405:
  3760     0399  3000               	movlw	0
  3761     039A  00C1               	movwf	___fldiv@b+3
  3762     039B  3000               	movlw	0
  3763     039C  00C0               	movwf	___fldiv@b+2
  3764     039D  3000               	movlw	0
  3765     039E  00BF               	movwf	___fldiv@b+1
  3766     039F  3000               	movlw	0
  3767     03A0  00BE               	movwf	___fldiv@b
  3768     03A1                     l1407:
  3769     03A1  01CB               	clrf	___fldiv@sign
  3770     03A2                     l512:
  3771     03A2  0020               	movlb	0	; select bank0
  3772     03A3  084C               	movf	___fldiv@new_exp,w
  3773     03A4  00D2               	movwf	___fldiv@bexp
  3774     03A5                     l1409:
  3775     03A5  1C52               	btfss	___fldiv@bexp,0
  3776     03A6  2BA8               	goto	u1701
  3777     03A7  2BA9               	goto	u1700
  3778     03A8                     u1701:
  3779     03A8  2BAB               	goto	l1413
  3780     03A9                     u1700:
  3781     03A9                     l1411:
  3782     03A9  17C0               	bsf	___fldiv@b+2,7
  3783     03AA  2BAF               	goto	l514
  3784     03AB                     l1413:
  3785     03AB  307F               	movlw	127
  3786     03AC  00C2               	movwf	??___fldiv
  3787     03AD  0842               	movf	??___fldiv,w
  3788     03AE  05C0               	andwf	___fldiv@b+2,f
  3789     03AF                     l514:
  3790     03AF  3652               	lsrf	___fldiv@bexp,w
  3791     03B0  00C1               	movwf	___fldiv@b+3
  3792     03B1  084B               	movf	___fldiv@sign,w
  3793     03B2  00C2               	movwf	??___fldiv
  3794     03B3  0842               	movf	??___fldiv,w
  3795     03B4  04C1               	iorwf	___fldiv@b+3,f
  3796     03B5  2A76               	goto	l1323
  3797     03B6                     l492:
  3798     03B6  0008               	return
  3799     03B7                     __end_of___fldiv:
  3800                           
  3801                           	psect	text11
  3802     0006                     __ptext11:	
  3803 ;; *************** function _intosc_set_freq *****************
  3804 ;; Defined at:
  3805 ;;		line 11 in file "./oscillator.h"
  3806 ;; Parameters:    Size  Location     Type
  3807 ;;		None
  3808 ;; Auto vars:     Size  Location     Type
  3809 ;;		None
  3810 ;; Return value:  Size  Location     Type
  3811 ;;                  1    wreg      void 
  3812 ;; Registers used:
  3813 ;;		wreg, status,2, status,0
  3814 ;; Tracked objects:
  3815 ;;		On entry : 0/0
  3816 ;;		On exit  : 0/0
  3817 ;;		Unchanged: 0/0
  3818 ;; Data sizes:     COMMON   BANK0   BANK1   BANK2   BANK3   BANK4   BANK5   BANK6   BANK7   BANK8   BANK9  BANK10  BANK1
      +1  BANK12
  3819 ;;      Params:         0       0       0       0       0       0       0       0       0       0       0       0       
      +0       0
  3820 ;;      Locals:         0       0       0       0       0       0       0       0       0       0       0       0       
      +0       0
  3821 ;;      Temps:          0       0       0       0       0       0       0       0       0       0       0       0       
      +0       0
  3822 ;;      Totals:         0       0       0       0       0       0       0       0       0       0       0       0       
      +0       0
  3823 ;;Total ram usage:        0 bytes
  3824 ;; Hardware stack levels used: 1
  3825 ;; This function calls:
  3826 ;;		Nothing
  3827 ;; This function is called by:
  3828 ;;		_main
  3829 ;; This function uses a non-reentrant model
  3830 ;;
  3831                           
  3832     0006                     _intosc_set_freq:	
  3833                           ;psect for function _intosc_set_freq
  3834                           
  3835     0006                     l1801:	
  3836                           ;incstack = 0
  3837                           ; Regs used in _intosc_set_freq: [wreg+status,2+status,0]
  3838                           
  3839                           
  3840                           ;./oscillator.h: 13:     OSCCONbits.IRCF = 0b1111;
  3841     0006  3078               	movlw	120
  3842     0007  0021               	movlb	1	; select bank1
  3843     0008  0499               	iorwf	25,f	;volatile
  3844     0009                     l39:
  3845     0009  0008               	return
  3846     000A                     __end_of_intosc_set_freq:
  3847     007E                     btemp	set	126	;btemp
  3848     007E                     wtemp0	set	126
  3849                           
  3850                           	psect	idloc
  3851                           
  3852                           ;Config register IDLOC0 @ 0x8000
  3853                           ;	unspecified, using default values
  3854     8000                     	org	32768
  3855     8000  3FFF               	dw	16383
  3856                           
  3857                           ;Config register IDLOC1 @ 0x8001
  3858                           ;	unspecified, using default values
  3859     8001                     	org	32769
  3860     8001  3FFF               	dw	16383
  3861                           
  3862                           ;Config register IDLOC2 @ 0x8002
  3863                           ;	unspecified, using default values
  3864     8002                     	org	32770
  3865     8002  3FFF               	dw	16383
  3866                           
  3867                           ;Config register IDLOC3 @ 0x8003
  3868                           ;	unspecified, using default values
  3869     8003                     	org	32771
  3870     8003  3FFF               	dw	16383
  3871                           
  3872                           	psect	config
  3873                           
  3874                           ;Config register CONFIG1 @ 0x8007
  3875                           ;	Oscillator Selection
  3876                           ;	FOSC = INTOSC, INTOSC oscillator: I/O function on CLKIN pin
  3877                           ;	Watchdog Timer Enable
  3878                           ;	WDTE = SWDTEN, WDT controlled by the SWDTEN bit in the WDTCON register
  3879                           ;	Power-up Timer Enable
  3880                           ;	PWRTE = OFF, PWRT disabled
  3881                           ;	MCLR Pin Function Select
  3882                           ;	MCLRE = ON, MCLR/VPP pin function is MCLR
  3883                           ;	Flash Program Memory Code Protection
  3884                           ;	CP = OFF, Program memory code protection is disabled
  3885                           ;	Brown-out Reset Enable
  3886                           ;	BOREN = OFF, Brown-out Reset disabled
  3887                           ;	Clock Out Enable
  3888                           ;	CLKOUTEN = OFF, CLKOUT function is disabled. I/O or oscillator function on the CLKOUT 
      +                          pin
  3889                           ;	Internal/External Switchover
  3890                           ;	IESO = OFF, Internal/External Switchover mode is disabled
  3891                           ;	Fail-Safe Clock Monitor Enable
  3892                           ;	FCMEN = OFF, Fail-Safe Clock Monitor is disabled
  3893     8007                     	org	32775
  3894     8007  09EC               	dw	2540
  3895                           
  3896                           ;Config register CONFIG2 @ 0x8008
  3897                           ;	Flash Memory Self-Write Protection
  3898                           ;	WRT = OFF, Write protection off
  3899                           ;	Voltage Regulator Capacitor Enable bit
  3900                           ;	VCAPEN = OFF, VCAP pin function disabled
  3901                           ;	Stack Overflow/Underflow Reset Enable
  3902                           ;	STVREN = ON, Stack Overflow or Underflow will cause a Reset
  3903                           ;	Brown-out Reset Voltage Selection
  3904                           ;	BORV = LO, Brown-out Reset Voltage (Vbor), low trip point selected.
  3905                           ;	Low-Power Brown Out Reset
  3906                           ;	LPBOR = OFF, Low-Power BOR is disabled
  3907                           ;	Low-Voltage Programming Enable
  3908                           ;	LVP = OFF, High-voltage on MCLR/VPP must be used for programming
  3909     8008                     	org	32776
  3910     8008  1FFF               	dw	8191

Data Sizes:
    Strings     0
    Constant    0
    Data        0
    BSS         2
    Persistent  32
    Stack       0

Auto Spaces:
    Space          Size  Autos    Used
    COMMON           14     14      14
    BANK0            80     80      80
    BANK1            80     22      24
    BANK2            80      0       0
    BANK3            80      0       0
    BANK4            80      0       0
    BANK5            80      0       0
    BANK6            80      0       0
    BANK7            80      0       0
    BANK8            80      0       0
    BANK9            80      0       0
    BANK10           80      0       0
    BANK11           80      0       0
    BANK12           48      0       0

Pointer List with Targets:

    None.

Critical Paths under _main in COMMON

    _pwm1_set_duty->___xxtofl
    _pwm_calculate_duty->___xxtofl
    ___fltol->___xxtofl
    ___flmul->___xxtofl
    ___fldiv->___xxtofl

Critical Paths under _main in BANK0

    _pwm_set_freq->___fltol
    ___fladd->___fldiv
    _pwm_calculate_duty->___fltol
    ___fltol->___fladd
    ___fldiv->___flmul

Critical Paths under _main in BANK1

    _main->_pwm1_set_duty
    _pwm_set_freq->___fltol
    _pwm1_set_duty->_pwm_calculate_duty
    _pwm_calculate_duty->___fltol

Critical Paths under _main in BANK2

    None.

Critical Paths under _main in BANK3

    None.

Critical Paths under _main in BANK4

    None.

Critical Paths under _main in BANK5

    None.

Critical Paths under _main in BANK6

    None.

Critical Paths under _main in BANK7

    None.

Critical Paths under _main in BANK8

    None.

Critical Paths under _main in BANK9

    None.

Critical Paths under _main in BANK10

    None.

Critical Paths under _main in BANK11

    None.

Critical Paths under _main in BANK12

    None.

Call Graph Tables:

 ---------------------------------------------------------------------------------
 (Depth) Function   	        Calls       Base Space   Used Autos Params    Refs
 ---------------------------------------------------------------------------------
 (0) _main                                                 2     2      0   13043
                                             20 BANK1      2     2      0
                    _intosc_set_freq
                      _pwm1_set_duty
                       _pwm_set_freq
                          _tmr2_init
 ---------------------------------------------------------------------------------
 (1) _tmr2_init                                            0     0      0       0
 ---------------------------------------------------------------------------------
 (1) _pwm_set_freq                                         8     4      4    7062
                                              2 BANK1      8     4      4
                            ___fladd
                            ___fldiv
                            ___flmul
                            ___fltol
 ---------------------------------------------------------------------------------
 (2) ___fladd                                             20    12      8    2262
                                             52 BANK0     20    12      8
                            ___fldiv (ARG)
                            ___flmul (ARG)
 ---------------------------------------------------------------------------------
 (1) _pwm1_set_duty                                       10     8      2    5981
                                             10 BANK1     10     8      2
                           ___xxtofl
                 _pwm_calculate_duty
 ---------------------------------------------------------------------------------
 (2) _pwm_calculate_duty                                   8     4      4    5274
                                              2 BANK1      8     4      4
                            ___fldiv
                            ___flmul
                            ___fltol
                           ___xxtofl
 ---------------------------------------------------------------------------------
 (3) ___xxtofl                                            14    10      4     474
                                              0 COMMON    14    10      4
 ---------------------------------------------------------------------------------
 (2) ___fltol                                             10     6      4     381
                                             72 BANK0      8     4      4
                                              0 BANK1      2     2      0
                            ___fladd (ARG)
                            ___fldiv (ARG)
                            ___flmul (ARG)
                           ___xxtofl (ARG)
 ---------------------------------------------------------------------------------
 (2) ___flmul                                             26    18      8    2873
                                              0 BANK0     26    18      8
                          __Umul8_16
                           ___xxtofl (ARG)
 ---------------------------------------------------------------------------------
 (3) __Umul8_16                                            9     7      2     799
                                              0 COMMON     9     7      2
 ---------------------------------------------------------------------------------
 (2) ___fldiv                                             26    18      8    1425
                                             26 BANK0     26    18      8
                            ___flmul (ARG)
                           ___xxtofl (ARG)
 ---------------------------------------------------------------------------------
 (1) _intosc_set_freq                                      0     0      0       0
 ---------------------------------------------------------------------------------
 Estimated maximum stack depth 3
 ---------------------------------------------------------------------------------

 Call Graph Graphs:

 _main (ROOT)
   _intosc_set_freq
   _pwm1_set_duty
     ___xxtofl
     _pwm_calculate_duty
       ___fldiv
         ___flmul (ARG)
           __Umul8_16
           ___xxtofl (ARG)
         ___xxtofl (ARG)
       ___flmul
       ___fltol
         ___fladd (ARG)
           ___fldiv (ARG)
           ___flmul (ARG)
         ___fldiv (ARG)
         ___flmul (ARG)
         ___xxtofl (ARG)
       ___xxtofl
   _pwm_set_freq
     ___fladd
     ___fldiv
     ___flmul
     ___fltol
   _tmr2_init

 Address spaces:
Name               Size   Autos  Total    Cost      Usage
BIGRAM             3F0      0       0       0        0.0%
NULL                 0      0       0       0        0.0%
CODE                 0      0       0       0        0.0%
BITCOMMON            E      0       0       1        0.0%
BITSFR0              0      0       0       1        0.0%
SFR0                 0      0       0       1        0.0%
COMMON               E      E       E       2      100.0%
BITSFR1              0      0       0       2        0.0%
SFR1                 0      0       0       2        0.0%
BITSFR2              0      0       0       3        0.0%
SFR2                 0      0       0       3        0.0%
STACK                0      0       0       3        0.0%
BITBANK0            50      0       0       4        0.0%
BITSFR3              0      0       0       4        0.0%
SFR3                 0      0       0       4        0.0%
BANK0               50     50      50       5      100.0%
BITSFR4              0      0       0       5        0.0%
SFR4                 0      0       0       5        0.0%
BITBANK1            50      0       0       6        0.0%
BITSFR5              0      0       0       6        0.0%
SFR5                 0      0       0       6        0.0%
BANK1               50     16      18       7       30.0%
BITSFR6              0      0       0       7        0.0%
SFR6                 0      0       0       7        0.0%
BITBANK2            50      0       0       8        0.0%
BITSFR7              0      0       0       8        0.0%
SFR7                 0      0       0       8        0.0%
BANK2               50      0       0       9        0.0%
BITSFR8              0      0       0       9        0.0%
SFR8                 0      0       0       9        0.0%
BITBANK3            50      0       0      10        0.0%
BITSFR9              0      0       0      10        0.0%
SFR9                 0      0       0      10        0.0%
BANK3               50      0       0      11        0.0%
BITSFR10             0      0       0      11        0.0%
SFR10                0      0       0      11        0.0%
BITBANK4            50      0       0      12        0.0%
BITSFR11             0      0       0      12        0.0%
SFR11                0      0       0      12        0.0%
BANK4               50      0       0      13        0.0%
BITSFR12             0      0       0      13        0.0%
SFR12                0      0       0      13        0.0%
BITBANK5            50      0       0      14        0.0%
BITSFR13             0      0       0      14        0.0%
SFR13                0      0       0      14        0.0%
BANK5               50      0       0      15        0.0%
BITSFR14             0      0       0      15        0.0%
SFR14                0      0       0      15        0.0%
BITBANK6            50      0       0      16        0.0%
BITSFR15             0      0       0      16        0.0%
SFR15                0      0       0      16        0.0%
BANK6               50      0       0      17        0.0%
BITSFR16             0      0       0      17        0.0%
SFR16                0      0       0      17        0.0%
BITBANK7            50      0       0      18        0.0%
BITSFR17             0      0       0      18        0.0%
SFR17                0      0       0      18        0.0%
BANK7               50      0       0      19        0.0%
BITSFR18             0      0       0      19        0.0%
SFR18                0      0       0      19        0.0%
BITSFR19             0      0       0      20        0.0%
SFR19                0      0       0      20        0.0%
ABS                  0      0      76      20        0.0%
BITBANK8            50      0       0      21        0.0%
BITSFR20             0      0       0      21        0.0%
SFR20                0      0       0      21        0.0%
BANK8               50      0       0      22        0.0%
BITSFR21             0      0       0      22        0.0%
SFR21                0      0       0      22        0.0%
BITBANK9            50      0       0      23        0.0%
BITSFR22             0      0       0      23        0.0%
SFR22                0      0       0      23        0.0%
BANK9               50      0       0      24        0.0%
BITSFR23             0      0       0      24        0.0%
SFR23                0      0       0      24        0.0%
BITBANK10           50      0       0      25        0.0%
BITSFR24             0      0       0      25        0.0%
SFR24                0      0       0      25        0.0%
BANK10              50      0       0      26        0.0%
BITSFR25             0      0       0      26        0.0%
SFR25                0      0       0      26        0.0%
BITBANK11           50      0       0      27        0.0%
BITSFR26             0      0       0      27        0.0%
SFR26                0      0       0      27        0.0%
BANK11              50      0       0      28        0.0%
BITSFR27             0      0       0      28        0.0%
SFR27                0      0       0      28        0.0%
BITBANK12           30      0       0      29        0.0%
BITSFR28             0      0       0      29        0.0%
SFR28                0      0       0      29        0.0%
BANK12              30      0       0      30        0.0%
BITSFR29             0      0       0      30        0.0%
SFR29                0      0       0      30        0.0%
BITSFR30             0      0       0      31        0.0%
SFR30                0      0       0      31        0.0%
DATA                 0      0      76      31        0.0%
BITSFR31             0      0       0      32        0.0%
SFR31                0      0       0      32        0.0%


Microchip Technology PIC Macro Assembler V2.40 build 20220703182018 
Symbol Table                                                                                   Tue Jan 03 16:56:25 2023

              ___fldiv@aexp 0053                ___fldiv@bexp 0052                ___fldiv@sign 004B  
                        l42 0F11                          l52 0064                          l60 0F65  
                        l45 0162                          l39 0009                          l48 00E3  
       __Umul8_16@word_mpld 0076                         l334 0FE9                         l511 0388  
                       l327 0FFF                         l512 03A2                         l440 0468  
                       l337 0FFF                         l514 03AF                         l506 033C  
                       l530 07F9                         l434 040D                         l542 07ED  
                       l438 048A                         l551 0F34                         l455 051A  
                       l447 05BE                         l536 0779                         l465 055E  
                       l490 025E                         l459 053C                         l492 03B6  
                       l580 01BE                         l476 05B7                         l468 0595  
                       l549 0F24                         l477 05BE                         l574 0185  
                       l576 020C                         l587 01D8                         l588 01E4  
                       _RC2 0072                         _PR2 001B                _pwm_set_freq 00E4  
                       wreg 0009                ___flmul@aexp 0032                ___flmul@bexp 0033  
              ___flmul@sign 002D                ___flmul@temp 0038                ___flmul@prod 0034  
              ___fltol@exp1 00A1            pwm_set_freq@freq 00A2                        l1301 023A  
                      l1311 024B                        l1303 023C                        l1231 0F15  
                      l1401 037B                        l1321 0272                        l1313 0253  
                      l1305 0240                        l1233 0F1C                        l1411 03A9  
                      l1403 0396                        l1323 0276                        l1315 0254  
                      l1307 0241                        l1235 0F20                        l1251 0FAC  
                      l1243 0F84                        l1413 03AB                        l1405 0399  
                      l1341 02B5                        l1333 028D                        l1309 0246  
                      l1317 0256                        l1237 0F2B                        l1229 0F13  
                      l1501 072F                        l1421 05C3                        l1253 0FAE  
                      l1245 0F8F                        l1407 03A1                        l1351 02CF  
                      l1343 02B7                        l1335 029D                        l1319 0266  
                      l1327 027F                        l1239 0F30                        l1511 074E  
                      l1503 0736                        l1431 05D4                        l1423 05C5  
                      l1255 0FB6                        l1409 03A5                        l1345 02BC  
                      l1353 02D6                        l1361 02F5                        l1337 02A5  
                      l1329 0284                        l1281 0211                        l1521 0762  
                      l1513 0755                        l1505 0742                        l1441 05ED  
                      l1433 05DC                        l1425 05C9                        l1273 0FDE  
                      l1265 0FC5                        l1257 0FB9                        l1249 0F99  
                      l1371 0310                        l1363 02FB                        l1355 02E8  
                      l1347 02CA                        l1339 02AD                        l1291 0222  
                      l1283 0213                        l1531 078B                        l1523 0776  
                      l1507 0749                        l1515 0759                        l1451 0604  
                      l1443 05F1                        l1435 05DE                        l1427 05CA  
                      l1419 05BF                        l1275 0FEE                        l1259 0FBD  
                      l1267 0FD7                        l1603 0065                        l1611 03BD  
                      l1381 0321                        l1373 0311                        l1365 0303  
                      l1357 02E9                        l1349 02CE                        l1293 022A  
                      l1285 0217                        l1541 07C2                        l1533 078F  
                      l1517 075D                        l1509 074D                        l1453 0606  
                      l1445 05F2                        l1437 05E6                        l1429 05CF  
                      l1277 0FF3                        l1701 047F                        l1621 03D4  
                      l1613 03C1                        l1391 0346                        l1383 0325  
                      l1375 0318                        l1367 0305                        l1359 02F1  
                      l1295 022B                        l1287 0218                        l1279 020D  
                      l1551 07EA                        l1543 07D0                        l1535 07A7  
                      l1527 077E                        l1519 075E                        l1471 065E  
                      l1463 0621                        l1455 060E                        l1447 05F7  
                      l1439 05EB                        l1711 049C                        l1703 0483  
                      l1631 03E8                        l1623 03D5                        l1615 03C2  
                      l1607 03B7                        l1801 0006                        l1393 034E  
                      l1385 0339                        l1369 030C                        l1377 031C  
                      l1289 021D                        l1297 022D                        l1553 07EB  
                      l1545 07D9                        l1529 0783                        l1537 07AB  
                      l1481 06A2                        l1473 0676                        l1465 062C  
                      l1457 0613                        l1449 05FC                        l1561 0169  
                      l1721 04B2                        l1713 04A4                        l1705 048E  
                      l1641 03F5                        l1633 03E9                        l1617 03C7  
                      l1625 03D7                        l1609 03BB                        l1395 0352  
                      l1379 0320                        l1299 0235                        l1555 07F1  
                      l1547 07DB                        l1539 07B8                        l1491 06D4  
                      l1483 06A9                        l1475 0683                        l1467 0639  
                      l1459 0618                        l1571 0196                        l1563 016D  
                      l1811 0034                        l1731 04DA                        l1723 04B6  
                      l1715 04A8                        l1707 0493                        l1651 0413  
                      l1643 03FA                        l1635 03EB                        l1627 03DF  
                      l1619 03CC                        l1803 0F0A                        l1397 036A  
                      l1389 0341                        l1549 07E6                        l1493 06E6  
                      l1485 06B4                        l1477 0690                        l1469 0651  
                      l1581 01B7                        l1573 0199                        l1565 017D  
                      l1813 003A                        l1741 0522                        l1733 04FE  
                      l1725 04B7                        l1717 04AC                        l1661 0421  
                      l1653 0417                        l1645 0402                        l1637 03EF  
                      l1629 03E2                        l1805 00E4                        l1821 0F35  
                      l1399 036E                        l1495 06F1                        l1487 06BB  
                      l1479 0697                        l1591 01E6                        l1583 01C5  
                      l1575 01A4                        l1567 018D                        l1559 0164  
                      l1815 003E                        l1807 000A                        l1751 053B  
                      l1743 0527                        l1735 0504                        l1727 04BF  
                      l1719 04B0                        l1671 042B                        l1663 0423  
                      l1655 041B                        l1647 0403                        l1639 03F0  
                      l1831 0F3F                        l1823 0F38                        l1497 0703  
                      l1489 06CD                        l1593 01FA                        l1585 01CE  
                      l1577 01AB                        l1817 004B                        l1809 002E  
                      l1753 0540                        l1761 054C                        l1737 0509  
                      l1729 04C4                        l1681 0435                        l1673 042D  
                      l1665 0425                        l1657 041D                        l1649 0405  
                      l1841 0F48                        l1833 0F40                        l1825 0F3A  
                      l1499 0718                        l1595 01FF                        l1587 01D2  
                      l1579 01AF                        l1819 0058                        l1755 0543  
                      l1747 0530                        l1739 0512                        l1763 0550  
                      l1691 046C                        l1683 0437                        l1675 042F  
                      l1667 0427                        l1659 041F                        l1851 0F5C  
                      l1843 0F4A                        l1835 0F41                        l1827 0F3B  
                      l1597 0203                        l1589 01DC                        l1781 0591  
                      l1773 0563                        l1765 0551                        l1757 0545  
                      l1749 0537                        l1693 0470                        l1677 0431  
                      l1669 0429                        l1685 0439                        l1861 0F69  
                      l1853 0F5E                        l1845 0F4D                        l1837 0F45  
                      l1829 0F3C                        l1599 0204                        l1791 05AD  
                      l1783 059A                        l1775 0568                        l1767 0555  
                      l1759 054A                        l1695 0472                        l1687 043A  
                      l1679 0433                        l1863 0F6D                        l1855 0F5F  
                      l1847 0F59                        l1839 0F46                        l1793 05B1  
                      l1785 059F                        l1777 0570                        l1769 055B  
                      l1697 0476                        l1689 0451                        l1865 0F74  
                      l1857 0F61                        l1849 0F5B                        l1795 05B3  
                      l1787 05A7                        l1779 0574                        l1699 0477  
                      l1859 0F63                        l1797 05B9                        l1789 05AC  
                      l1799 05BD                        u2010 01AA                        u2011 01A9  
                      u2100 0203                        u2101 0202                        u2005 019E  
                      u1310 0F30                        u2030 01C4                        u2110 03C1  
                      u1311 0F2F                        u2031 01C3                        u2111 03C0  
                      u1400 0FEE                        u1320 0F8F                        u2200 0451  
                      u2120 03C7                        u1305 0F25                        u1401 0FED  
                      u1321 0F8E                        u2025 01B8                        u2201 0450  
                      u2121 03C6                        u1410 0FF3                        u1330 0FA7  
                      u2050 01D2                        u2210 045B                        u2130 03CC  
                      u1411 0FF2                        u2051 01D1                        u2211 0459  
                      u2131 03CB                        u1500 02BC                        u1420 0217  
                      u1340 0FBD                        u2060 01D8                        u2300 04AC  
                      u2220 045C                        u2140 03E8                        u1501 02BB  
                      u1421 0216                        u1341 0FBC                        u2061 01D7  
                      u2045 01C8                        u2301 04AB                        u2205 044D  
                      u2141 03E7                        u1430 021D                        u1350 0FC4  
                      u2070 01DC                        u2310 04B6                        u2230 046C  
                      u2150 03EF                        u1431 021C                        u1351 0FC3  
                      u1335 0FA3                        u2071 01DB                        u2311 04B5  
                      u2231 046B                        u2151 03EE                        u1440 0222  
                      u2080 01F0                        u2400 054A                        u2240 0476  
                      u2160 03F5                        u1441 0221                        u2401 0549  
                      u2241 0475                        u2161 03F4                        u1610 0320  
                      u1530 02CE                        u1450 0240                        u1290 0F20  
                      u1370 0FD6                        u2090 01FF                        u2410 0550  
                      u2330 04DA                        u2170 03FA                        u1611 031F  
                      u1531 02CD                        u1515 02BD                        u1451 023F  
                      u1291 0F1F                        u1371 0FD5                        u2091 01FE  
                      u2411 054F                        u2331 04D9                        u2171 03F9  
                      u1700 03A9                        u1620 0325                        u1460 0246  
                      u1380 0FDD                        u2500 059F                        u2420 0555  
                      u2340 0509                        u2260 048A                        u2180 0413  
                      u1701 03A8                        u1621 0324                        u1605 0312  
                      u1525 02C4                        u1461 0245                        u1381 0FDC  
                      u1365 0FC6                        u2085 01EC                        u2501 059E  
                      u2421 0554                        u2341 0508                        u2333 04D6  
                      u2325 04B9                        u2261 0489                        u2181 0412  
                      u1630 0339                        u1550 02E8                        u1470 024B  
                      u1710 05C9                        u2510 05AC                        u2430 055B  
                      u2350 0522                        u2270 048E                        u2190 0417  
                      u1631 0338                        u1551 02E7                        u1471 024A  
                      u1711 05C8                        u2511 05AB                        u2431 055A  
                      u2351 0521                        u2271 048D                        u2255 0479  
                      u2191 0416                        u1640 0340                        u1560 02FB  
                      u1480 0266                        u1720 05CF                        u2520 05B1  
                      u2440 0562                        u2360 0527                        u2280 0493  
                      u1641 033F                        u1561 02FA                        u1545 02D0  
                      u1481 0265                        u1721 05CE                        u2521 05B0  
                      u2441 0561                        u2361 0526                        u2281 0492  
                      u1650 0346                        u1570 0303                        u1490 0284  
                      u1810 070E                        u1730 05D4                        u2530 05BD  
                      u2450 0568                        u2290 04A8                        u1651 0345  
                      u1571 0302                        u1555 02E4                        u1491 0283  
                      u1731 05D3                        u1395 0FDF                        u2531 05BC  
                      u2451 0567                        u2291 04A7                        u1660 0352  
                      u1900 077D                        u1820 0725                        u1740 05F1  
                      u2540 0034                        u2460 0574                        u2380 053B  
                      u1661 0351                        u1901 077C                        u1805 06BC  
                      u1741 05F0                        u2541 0033                        u2461 0573  
                      u2381 053A                        u1670 0360                        u1590 0310  
                      u1910 0783                        u1750 05F7                        u2550 003A  
                      u2470 0582                        u2390 0540                        u1591 030F  
                      u1911 0782                        u1815 070A                        u1751 05F6  
                      u2551 0039                        u2391 053F                        u2375 0531  
                      u1680 037B                        u1920 078F                        u1760 05FC  
                      u2480 0591                        u2560 0F69                        u1681 037A  
                      u1585 0306                        u1921 078E                        u1825 0721  
                      u1761 05FB                        u2481 0590                        u2561 0F68  
                      u1690 0396                        u1930 079D                        u1850 074D  
                      u1770 0613                        u2490 059A                        u1691 0395  
                      u1675 035C                        u1851 074C                        u1835 0730  
                      u1771 0612                        u2491 0599                        u2475 057E  
                      u1940 07B8                        u1780 0618                        u1685 0377  
                      u1941 07B7                        u1845 0743                        u1781 0617  
                      u1950 07D0                        u1870 075D                        u1695 0392  
                      u1951 07CF                        u1935 0799                        u1871 075C  
                      u1960 07EA                        u1880 0762                        u1961 07E9  
                      u1945 07B4                        u1881 0761                        u1865 074F  
                      u2577 0F7A                        u1890 0776                        u1970 0169  
                      u1955 07CC                        u1891 0775                        u1795 0691  
                      u1971 0168                        u1980 016D                        u1981 016C  
                      u1990 018D                        u1991 018C                        _TMR2 001A  
                      _main 0F35                        btemp 007E             _intosc_set_freq 0006  
                      start 0003             ___fldiv@new_exp 004C               ___fltol@sign1 00A0  
           __end_of___fladd 05BF                       ?_main 0070             __end_of___fldiv 03B7  
           __end_of___flmul 07FA             __end_of___fltol 1000                       _value 00B6  
                     status 0003                       wtemp0 007E       __end_of_pwm1_set_duty 0065  
           __initialization 07FA                __end_of_main 0F84                      ??_main 00B4  
                    _ADRESH 009C                      _ADRESL 009B                      _CCPR1L 0291  
   __end_of_intosc_set_freq 000A                      _ANSELA 018C                      _ANSELB 018D  
                    _ANSELC 018E                      _TRISA0 0460                      _TRISC2 0472  
          __end_of___xxtofl 020D                   ??___fladd 005C                   ??___fldiv 0042  
                 ??___flmul 0028                   ??___fltol 006C          _pwm_calculate_duty 0065  
              ___xxtofl@arg 007A                ___xxtofl@exp 0079                ___xxtofl@val 0070  
   __end_of__initialization 07FD         ?_pwm_calculate_duty 00A2                  ___fltol@f1 0068  
            __pcstackCOMMON 0070        ??_pwm_calculate_duty 007E            ?_intosc_set_freq 0070  
                __pbssBANK1 00B6           __end_of__Umul8_16 0F35                  __pmaintext 0F35  
                 ?___xxtofl 0070                     ___fladd 03B7                     ___fldiv 020D  
                   ___flmul 05BF                     ___fltol 0F84                     __ptext1 0F0A  
                   __ptext2 00E4                     __ptext3 03B7                     __ptext4 000A  
                   __ptext5 0065                     __ptext6 0163                     __ptext7 0F84  
                   __ptext8 05BF                     __ptext9 0F12                   _T2CONbits 001C  
                ??___xxtofl 0074            _pwm_set_freq$684 00A6        end_of_initialization 07FD  
         __end_of_tmr2_init 0F12                 ___fladd@grs 0067               ___xxtofl@sign 0078  
               ___fldiv@grs 004E                 ___fldiv@rem 0047                 ___flmul@grs 002E  
               _CCP1CONbits 0293               ?_pwm_set_freq 00A2         start_initialization 07FA  
             _pwm1_set_duty 000A                   __Umul8_16 0F12              ??_pwm_set_freq 007E  
                 ___fladd@a 0058                   ___fladd@b 0054                   ___fldiv@a 003A  
                 ___fldiv@b 003E                   ___flmul@a 0024                   ___flmul@b 0020  
                 ___latbits 0003               __pcstackBANK0 0020               __pcstackBANK1 00A0  
         pwm1_set_duty@duty 00B2           _pwm1_set_duty$686 00AE              ?_pwm1_set_duty 00AA  
                  ?___fladd 0054                    ?___fldiv 003A                    ?___flmul 0020  
                  ?___fltol 0068                  ?__Umul8_16 0070                   _tmr2_init 0F0A  
    _pwm_calculate_duty$685 00A6                  _ADCON0bits 009D                  _ADCON1bits 009E  
      __end_of_pwm_set_freq 0163                  ?_tmr2_init 0070             ??_pwm1_set_duty 00AC  
    pwm_calculate_duty@duty 00A2      pwm1_set_duty@dutyInput 00AA                 ??__Umul8_16 0072  
         ??_intosc_set_freq 0070                  _ANSELAbits 018C                    ___xxtofl 0163  
                  __ptext10 020D                    __ptext11 0006                 ??_tmr2_init 0070  
                _OSCCONbits 0099  __end_of_pwm_calculate_duty 00E4      __Umul8_16@multiplicand 0070  
             ___fladd@signs 0064                ___fladd@aexp 0065                ___fladd@bexp 0066  
      __Umul8_16@multiplier 0078           __Umul8_16@product 0074  
